ARM GAS  /tmp/ccy4tSof.s 			page 1


   1              		.cpu cortex-m3
   2              		.eabi_attribute 20, 1
   3              		.eabi_attribute 21, 1
   4              		.eabi_attribute 23, 3
   5              		.eabi_attribute 24, 1
   6              		.eabi_attribute 25, 1
   7              		.eabi_attribute 26, 1
   8              		.eabi_attribute 30, 1
   9              		.eabi_attribute 34, 1
  10              		.eabi_attribute 18, 4
  11              		.file	"main.c"
  12              		.text
  13              	.Ltext0:
  14              		.cfi_sections	.debug_frame
  15              		.section	.text.Error_Handler_Custom,"ax",%progbits
  16              		.align	1
  17              		.global	Error_Handler_Custom
  18              		.arch armv7-m
  19              		.syntax unified
  20              		.thumb
  21              		.thumb_func
  22              		.fpu softvfp
  24              	Error_Handler_Custom:
  25              	.LFB68:
  26              		.file 1 "Src/main.c"
   1:Src/main.c    **** /* USER CODE BEGIN Header */
   2:Src/main.c    **** /**
   3:Src/main.c    ****   ******************************************************************************
   4:Src/main.c    ****   * @file           : main.c
   5:Src/main.c    ****   * @brief          : Main program body
   6:Src/main.c    ****   ******************************************************************************
   7:Src/main.c    ****   * @attention
   8:Src/main.c    ****   *
   9:Src/main.c    ****   * Copyright (c) 2024 STMicroelectronics.
  10:Src/main.c    ****   * All rights reserved.
  11:Src/main.c    ****   *
  12:Src/main.c    ****   * This software is licensed under terms that can be found in the LICENSE file
  13:Src/main.c    ****   * in the root directory of this software component.
  14:Src/main.c    ****   * If no LICENSE file comes with this software, it is provided AS-IS.
  15:Src/main.c    ****   *
  16:Src/main.c    ****   ******************************************************************************
  17:Src/main.c    ****   */
  18:Src/main.c    **** /* USER CODE END Header */
  19:Src/main.c    **** /* Includes ------------------------------------------------------------------*/
  20:Src/main.c    **** #include "main.h"
  21:Src/main.c    **** #include "dma.h"
  22:Src/main.c    **** #include "tim.h"
  23:Src/main.c    **** #include "usart.h"
  24:Src/main.c    **** #include "gpio.h"
  25:Src/main.c    **** 
  26:Src/main.c    **** /* Private includes ----------------------------------------------------------*/
  27:Src/main.c    **** /* USER CODE BEGIN Includes */
  28:Src/main.c    **** #include <stdio.h>
  29:Src/main.c    **** #include <stdlib.h>
  30:Src/main.c    **** #include <string.h>
  31:Src/main.c    **** #include "core_cm3.h"
  32:Src/main.c    **** /* USER CODE END Includes */
ARM GAS  /tmp/ccy4tSof.s 			page 2


  33:Src/main.c    **** 
  34:Src/main.c    **** /* Private typedef -----------------------------------------------------------*/
  35:Src/main.c    **** /* USER CODE BEGIN PTD */
  36:Src/main.c    **** 
  37:Src/main.c    **** /* USER CODE END PTD */
  38:Src/main.c    **** 
  39:Src/main.c    **** /* Private define ------------------------------------------------------------*/
  40:Src/main.c    **** /* USER CODE BEGIN PD */
  41:Src/main.c    **** 
  42:Src/main.c    **** /* USER CODE END PD */
  43:Src/main.c    **** 
  44:Src/main.c    **** /* Private macro -------------------------------------------------------------*/
  45:Src/main.c    **** /* USER CODE BEGIN PM */
  46:Src/main.c    **** 
  47:Src/main.c    **** /* USER CODE END PM */
  48:Src/main.c    **** 
  49:Src/main.c    **** /* Private variables ---------------------------------------------------------*/
  50:Src/main.c    **** 
  51:Src/main.c    **** /* USER CODE BEGIN PV */
  52:Src/main.c    **** 
  53:Src/main.c    **** /* USER CODE END PV */
  54:Src/main.c    **** 
  55:Src/main.c    **** /* Private function prototypes -----------------------------------------------*/
  56:Src/main.c    **** void SystemClock_Config(void);
  57:Src/main.c    **** /* USER CODE BEGIN PFP */
  58:Src/main.c    **** 
  59:Src/main.c    **** /* USER CODE END PFP */
  60:Src/main.c    **** 
  61:Src/main.c    **** /* Private user code ---------------------------------------------------------*/
  62:Src/main.c    **** /* USER CODE BEGIN 0 */
  63:Src/main.c    **** 
  64:Src/main.c    **** 
  65:Src/main.c    **** 
  66:Src/main.c    **** // 定义基准时间 2003-02-12 02:00:00
  67:Src/main.c    **** unsigned int BASE_YEAR = 2003;
  68:Src/main.c    **** unsigned int  BASE_MONTH = 2;
  69:Src/main.c    **** unsigned int  BASE_DAY = 12;
  70:Src/main.c    **** unsigned int  BASE_HOUR = 2;
  71:Src/main.c    **** unsigned int BASE_MINUTE = 0;
  72:Src/main.c    **** unsigned int  BASE_SECOND = 0;
  73:Src/main.c    **** 
  74:Src/main.c    **** // 定义位置
  75:Src/main.c    **** char LATITUDE[20] = "2237.8840,N"; // 22.6314°N
  76:Src/main.c    **** char LONGITUDE[20] = "11009.2400,E"; // 110.154°E
  77:Src/main.c    **** 
  78:Src/main.c    **** // 初始时间设置
  79:Src/main.c    **** uint32_t baseTime = 0; // 秒数
  80:Src/main.c    **** 
  81:Src/main.c    **** uint32_t baseTick = 0;
  82:Src/main.c    **** uint32_t elapsed = 0;
  83:Src/main.c    **** 
  84:Src/main.c    **** // GPS数据模拟
  85:Src/main.c    **** char gprmc_data[100];
  86:Src/main.c    **** 
  87:Src/main.c    **** 
  88:Src/main.c    **** 
  89:Src/main.c    **** // USART句柄声明
ARM GAS  /tmp/ccy4tSof.s 			page 3


  90:Src/main.c    **** extern UART_HandleTypeDef huart3;
  91:Src/main.c    **** extern UART_HandleTypeDef huart1;
  92:Src/main.c    **** 
  93:Src/main.c    **** uint8_t uart_rx_buffer; 
  94:Src/main.c    **** 
  95:Src/main.c    **** // 定时器句柄声明
  96:Src/main.c    **** extern TIM_HandleTypeDef htim2; 
  97:Src/main.c    **** extern TIM_HandleTypeDef htim3;
  98:Src/main.c    **** extern TIM_HandleTypeDef htim4; // 100Hz -- /100: PPS ,  /10: Trigger
  99:Src/main.c    **** 
 100:Src/main.c    **** 
 101:Src/main.c    **** // 触发发送trigger的标志
 102:Src/main.c    **** volatile uint8_t trigger_flag = 0;
 103:Src/main.c    **** // 触发发送GPS数据的标志
 104:Src/main.c    **** volatile uint8_t send_gps_flag = 0;
 105:Src/main.c    **** 
 106:Src/main.c    **** 
 107:Src/main.c    **** 
 108:Src/main.c    **** void Error_Handler_Custom(void)
 109:Src/main.c    **** {
  27              		.loc 1 109 1 view -0
  28              		.cfi_startproc
  29              		@ args = 0, pretend = 0, frame = 0
  30              		@ frame_needed = 0, uses_anonymous_args = 0
  31 0000 08B5     		push	{r3, lr}
  32              	.LCFI0:
  33              		.cfi_def_cfa_offset 8
  34              		.cfi_offset 3, -8
  35              		.cfi_offset 14, -4
  36              	.L6:
 110:Src/main.c    **** 
 111:Src/main.c    ****   while (1) {
  37              		.loc 1 111 3 view .LVU1
 112:Src/main.c    ****     // 闪烁错误指示 LED 
 113:Src/main.c    ****     HAL_GPIO_WritePin(GPIOC, GPIO_PIN_5, RESET); 
  38              		.loc 1 113 5 view .LVU2
  39 0002 0022     		movs	r2, #0
  40 0004 2021     		movs	r1, #32
  41 0006 0F48     		ldr	r0, .L9
  42 0008 FFF7FEFF 		bl	HAL_GPIO_WritePin
  43              	.LVL0:
 114:Src/main.c    ****     HAL_GPIO_WritePin(GPIOB, GPIO_PIN_2, RESET); 
  44              		.loc 1 114 5 view .LVU3
  45 000c 0022     		movs	r2, #0
  46 000e 0421     		movs	r1, #4
  47 0010 0D48     		ldr	r0, .L9+4
  48 0012 FFF7FEFF 		bl	HAL_GPIO_WritePin
  49              	.LVL1:
 115:Src/main.c    ****     for(int i = 0; i < 500; i ++);
  50              		.loc 1 115 5 view .LVU4
  51              	.LBB2:
  52              		.loc 1 115 9 view .LVU5
  53              		.loc 1 115 13 is_stmt 0 view .LVU6
  54 0016 0023     		movs	r3, #0
  55              	.LVL2:
  56              	.L2:
  57              		.loc 1 115 20 is_stmt 1 discriminator 1 view .LVU7
ARM GAS  /tmp/ccy4tSof.s 			page 4


  58              		.loc 1 115 5 is_stmt 0 discriminator 1 view .LVU8
  59 0018 B3F5FA7F 		cmp	r3, #500
  60 001c 01DA     		bge	.L8
  61              		.loc 1 115 34 is_stmt 1 discriminator 3 view .LVU9
  62              		.loc 1 115 29 discriminator 3 view .LVU10
  63              		.loc 1 115 31 is_stmt 0 discriminator 3 view .LVU11
  64 001e 0133     		adds	r3, r3, #1
  65              	.LVL3:
  66              		.loc 1 115 31 discriminator 3 view .LVU12
  67 0020 FAE7     		b	.L2
  68              	.L8:
  69              		.loc 1 115 31 discriminator 3 view .LVU13
  70              	.LBE2:
 116:Src/main.c    ****     HAL_GPIO_WritePin(GPIOC, GPIO_PIN_5, SET); 
  71              		.loc 1 116 5 is_stmt 1 view .LVU14
  72 0022 0122     		movs	r2, #1
  73 0024 2021     		movs	r1, #32
  74 0026 0748     		ldr	r0, .L9
  75 0028 FFF7FEFF 		bl	HAL_GPIO_WritePin
  76              	.LVL4:
 117:Src/main.c    ****     HAL_GPIO_WritePin(GPIOB, GPIO_PIN_2, SET); 
  77              		.loc 1 117 5 view .LVU15
  78 002c 0122     		movs	r2, #1
  79 002e 0421     		movs	r1, #4
  80 0030 0548     		ldr	r0, .L9+4
  81 0032 FFF7FEFF 		bl	HAL_GPIO_WritePin
  82              	.LVL5:
 118:Src/main.c    ****     for(int i = 0; i < 500; i ++);
  83              		.loc 1 118 5 view .LVU16
  84              	.LBB3:
  85              		.loc 1 118 9 view .LVU17
  86              		.loc 1 118 13 is_stmt 0 view .LVU18
  87 0036 0023     		movs	r3, #0
  88              	.LVL6:
  89              	.L4:
  90              		.loc 1 118 20 is_stmt 1 discriminator 1 view .LVU19
  91              		.loc 1 118 5 is_stmt 0 discriminator 1 view .LVU20
  92 0038 B3F5FA7F 		cmp	r3, #500
  93 003c E1DA     		bge	.L6
  94              		.loc 1 118 34 is_stmt 1 discriminator 3 view .LVU21
  95              		.loc 1 118 29 discriminator 3 view .LVU22
  96              		.loc 1 118 31 is_stmt 0 discriminator 3 view .LVU23
  97 003e 0133     		adds	r3, r3, #1
  98              	.LVL7:
  99              		.loc 1 118 31 discriminator 3 view .LVU24
 100 0040 FAE7     		b	.L4
 101              	.L10:
 102 0042 00BF     		.align	2
 103              	.L9:
 104 0044 00100140 		.word	1073811456
 105 0048 000C0140 		.word	1073810432
 106              	.LBE3:
 107              		.cfi_endproc
 108              	.LFE68:
 110              		.section	.text.DWT_Init,"ax",%progbits
 111              		.align	1
 112              		.global	DWT_Init
ARM GAS  /tmp/ccy4tSof.s 			page 5


 113              		.syntax unified
 114              		.thumb
 115              		.thumb_func
 116              		.fpu softvfp
 118              	DWT_Init:
 119              	.LFB69:
 119:Src/main.c    ****   }
 120:Src/main.c    **** }
 121:Src/main.c    **** 
 122:Src/main.c    **** 
 123:Src/main.c    **** void DWT_Init(void) {
 120              		.loc 1 123 21 is_stmt 1 view -0
 121              		.cfi_startproc
 122              		@ args = 0, pretend = 0, frame = 0
 123              		@ frame_needed = 0, uses_anonymous_args = 0
 124              		@ link register save eliminated.
 124:Src/main.c    ****     if (!(DWT->CTRL & DWT_CTRL_CYCCNTENA_Msk)) {
 125              		.loc 1 124 5 view .LVU26
 126              		.loc 1 124 14 is_stmt 0 view .LVU27
 127 0000 084B     		ldr	r3, .L13
 128 0002 1B68     		ldr	r3, [r3]
 129              		.loc 1 124 8 view .LVU28
 130 0004 13F0010F 		tst	r3, #1
 131 0008 0BD1     		bne	.L11
 125:Src/main.c    ****         CoreDebug->DEMCR |= CoreDebug_DEMCR_TRCENA_Msk; // 启用DWT和ITM单元
 132              		.loc 1 125 9 is_stmt 1 view .LVU29
 133              		.loc 1 125 26 is_stmt 0 view .LVU30
 134 000a 074A     		ldr	r2, .L13+4
 135 000c D368     		ldr	r3, [r2, #12]
 136 000e 43F08073 		orr	r3, r3, #16777216
 137 0012 D360     		str	r3, [r2, #12]
 126:Src/main.c    ****         DWT->CYCCNT = 0; // 清零计数器
 138              		.loc 1 126 9 is_stmt 1 view .LVU31
 139              		.loc 1 126 21 is_stmt 0 view .LVU32
 140 0014 034B     		ldr	r3, .L13
 141 0016 0022     		movs	r2, #0
 142 0018 5A60     		str	r2, [r3, #4]
 127:Src/main.c    ****         DWT->CTRL |= DWT_CTRL_CYCCNTENA_Msk; // 启用CYCCNT
 143              		.loc 1 127 9 is_stmt 1 view .LVU33
 144              		.loc 1 127 19 is_stmt 0 view .LVU34
 145 001a 1A68     		ldr	r2, [r3]
 146 001c 42F00102 		orr	r2, r2, #1
 147 0020 1A60     		str	r2, [r3]
 148              	.L11:
 128:Src/main.c    ****     }
 129:Src/main.c    **** }
 149              		.loc 1 129 1 view .LVU35
 150 0022 7047     		bx	lr
 151              	.L14:
 152              		.align	2
 153              	.L13:
 154 0024 001000E0 		.word	-536866816
 155 0028 F0ED00E0 		.word	-536810000
 156              		.cfi_endproc
 157              	.LFE69:
 159              		.section	.text.DWT_Delay,"ax",%progbits
 160              		.align	1
ARM GAS  /tmp/ccy4tSof.s 			page 6


 161              		.global	DWT_Delay
 162              		.syntax unified
 163              		.thumb
 164              		.thumb_func
 165              		.fpu softvfp
 167              	DWT_Delay:
 168              	.LVL8:
 169              	.LFB70:
 130:Src/main.c    **** void DWT_Delay(uint32_t us) {   // 微秒级延时
 170              		.loc 1 130 29 is_stmt 1 view -0
 171              		.cfi_startproc
 172              		@ args = 0, pretend = 0, frame = 0
 173              		@ frame_needed = 0, uses_anonymous_args = 0
 174              		@ link register save eliminated.
 131:Src/main.c    ****     uint32_t startTick = DWT->CYCCNT;
 175              		.loc 1 131 5 view .LVU37
 176              		.loc 1 131 14 is_stmt 0 view .LVU38
 177 0000 074B     		ldr	r3, .L17
 178 0002 5A68     		ldr	r2, [r3, #4]
 179              	.LVL9:
 132:Src/main.c    ****     uint32_t delayTicks = us * (SystemCoreClock / 1000000); // 转换微秒为tick数
 180              		.loc 1 132 5 is_stmt 1 view .LVU39
 181              		.loc 1 132 49 is_stmt 0 view .LVU40
 182 0004 074B     		ldr	r3, .L17+4
 183 0006 1B68     		ldr	r3, [r3]
 184 0008 0749     		ldr	r1, .L17+8
 185 000a A1FB0313 		umull	r1, r3, r1, r3
 186 000e 9B0C     		lsrs	r3, r3, #18
 187              		.loc 1 132 14 view .LVU41
 188 0010 00FB03F0 		mul	r0, r0, r3
 189              	.LVL10:
 133:Src/main.c    **** 
 134:Src/main.c    ****     while (DWT->CYCCNT - startTick < delayTicks);
 190              		.loc 1 134 5 is_stmt 1 view .LVU42
 191              	.L16:
 192              		.loc 1 134 49 discriminator 1 view .LVU43
 193              		.loc 1 134 11 discriminator 1 view .LVU44
 194              		.loc 1 134 15 is_stmt 0 discriminator 1 view .LVU45
 195 0014 024B     		ldr	r3, .L17
 196 0016 5B68     		ldr	r3, [r3, #4]
 197              		.loc 1 134 24 discriminator 1 view .LVU46
 198 0018 9B1A     		subs	r3, r3, r2
 199              		.loc 1 134 11 discriminator 1 view .LVU47
 200 001a 8342     		cmp	r3, r0
 201 001c FAD3     		bcc	.L16
 135:Src/main.c    **** }
 202              		.loc 1 135 1 view .LVU48
 203 001e 7047     		bx	lr
 204              	.L18:
 205              		.align	2
 206              	.L17:
 207 0020 001000E0 		.word	-536866816
 208 0024 00000000 		.word	SystemCoreClock
 209 0028 83DE1B43 		.word	1125899907
 210              		.cfi_endproc
 211              	.LFE70:
 213              		.section	.text.nmea_checksum,"ax",%progbits
ARM GAS  /tmp/ccy4tSof.s 			page 7


 214              		.align	1
 215              		.global	nmea_checksum
 216              		.syntax unified
 217              		.thumb
 218              		.thumb_func
 219              		.fpu softvfp
 221              	nmea_checksum:
 222              	.LVL11:
 223              	.LFB71:
 136:Src/main.c    **** 
 137:Src/main.c    **** 
 138:Src/main.c    **** // 校验和计算函数
 139:Src/main.c    **** uint8_t nmea_checksum(const char* sentence) {
 224              		.loc 1 139 45 is_stmt 1 view -0
 225              		.cfi_startproc
 226              		@ args = 0, pretend = 0, frame = 0
 227              		@ frame_needed = 0, uses_anonymous_args = 0
 228              		@ link register save eliminated.
 229              		.loc 1 139 45 is_stmt 0 view .LVU50
 230 0000 0246     		mov	r2, r0
 140:Src/main.c    ****     uint8_t checksum = 0;
 231              		.loc 1 140 5 is_stmt 1 view .LVU51
 232              	.LVL12:
 141:Src/main.c    ****     if (*sentence == '$') {
 233              		.loc 1 141 5 view .LVU52
 234              		.loc 1 141 9 is_stmt 0 view .LVU53
 235 0002 0378     		ldrb	r3, [r0]	@ zero_extendqisi2
 236              		.loc 1 141 8 view .LVU54
 237 0004 242B     		cmp	r3, #36
 238 0006 07D0     		beq	.L24
 239              	.LVL13:
 240              	.L20:
 139:Src/main.c    ****     uint8_t checksum = 0;
 241              		.loc 1 139 45 view .LVU55
 242 0008 0020     		movs	r0, #0
 243              	.LVL14:
 244              	.L21:
 142:Src/main.c    ****         sentence++;  // Skip '$'
 143:Src/main.c    ****     }
 144:Src/main.c    ****     
 145:Src/main.c    ****     while (*sentence && *sentence != '*') {
 245              		.loc 1 145 11 is_stmt 1 view .LVU56
 246              		.loc 1 145 12 is_stmt 0 view .LVU57
 247 000a 1378     		ldrb	r3, [r2]	@ zero_extendqisi2
 248              		.loc 1 145 11 view .LVU58
 249 000c 33B1     		cbz	r3, .L22
 250              		.loc 1 145 22 discriminator 1 view .LVU59
 251 000e 2A2B     		cmp	r3, #42
 252 0010 04D0     		beq	.L22
 146:Src/main.c    ****         checksum ^= *sentence++;
 253              		.loc 1 146 9 is_stmt 1 view .LVU60
 254              		.loc 1 146 30 is_stmt 0 view .LVU61
 255 0012 0132     		adds	r2, r2, #1
 256              	.LVL15:
 257              		.loc 1 146 18 view .LVU62
 258 0014 5840     		eors	r0, r0, r3
 259              	.LVL16:
ARM GAS  /tmp/ccy4tSof.s 			page 8


 260              		.loc 1 146 18 view .LVU63
 261 0016 F8E7     		b	.L21
 262              	.LVL17:
 263              	.L24:
 142:Src/main.c    ****         sentence++;  // Skip '$'
 264              		.loc 1 142 9 is_stmt 1 view .LVU64
 142:Src/main.c    ****         sentence++;  // Skip '$'
 265              		.loc 1 142 17 is_stmt 0 view .LVU65
 266 0018 0132     		adds	r2, r2, #1
 267              	.LVL18:
 142:Src/main.c    ****         sentence++;  // Skip '$'
 268              		.loc 1 142 17 view .LVU66
 269 001a F5E7     		b	.L20
 270              	.LVL19:
 271              	.L22:
 147:Src/main.c    ****     }
 148:Src/main.c    ****     return checksum;
 272              		.loc 1 148 5 is_stmt 1 view .LVU67
 149:Src/main.c    **** }
 273              		.loc 1 149 1 is_stmt 0 view .LVU68
 274 001c 7047     		bx	lr
 275              		.cfi_endproc
 276              	.LFE71:
 278              		.section	.rodata.GPRMC_Generator.str1.4,"aMS",%progbits,1
 279              		.align	2
 280              	.LC0:
 281 0000 24475052 		.ascii	"$GPRMC,%02d%02d%02d.00,A,%s,%s,0.00,0.00,%02d%02d%0"
 281      4D432C25 
 281      30326425 
 281      30326425 
 281      3032642E 
 282 0033 32642C2C 		.ascii	"2d,,,A*\000"
 282      2C412A00 
 283 003b 00       		.align	2
 284              	.LC1:
 285 003c 25303258 		.ascii	"%02X\015\012\000"
 285      0D0A00
 286              		.section	.text.GPRMC_Generator,"ax",%progbits
 287              		.align	1
 288              		.global	GPRMC_Generator
 289              		.syntax unified
 290              		.thumb
 291              		.thumb_func
 292              		.fpu softvfp
 294              	GPRMC_Generator:
 295              	.LVL20:
 296              	.LFB72:
 150:Src/main.c    **** 
 151:Src/main.c    **** 
 152:Src/main.c    **** 
 153:Src/main.c    **** // GPRMC Generator
 154:Src/main.c    **** void GPRMC_Generator(uint32_t input_baseTime) {
 297              		.loc 1 154 47 is_stmt 1 view -0
 298              		.cfi_startproc
 299              		@ args = 0, pretend = 0, frame = 0
 300              		@ frame_needed = 0, uses_anonymous_args = 0
 301              		.loc 1 154 47 is_stmt 0 view .LVU70
ARM GAS  /tmp/ccy4tSof.s 			page 9


 302 0000 2DE9F041 		push	{r4, r5, r6, r7, r8, lr}
 303              	.LCFI1:
 304              		.cfi_def_cfa_offset 24
 305              		.cfi_offset 4, -24
 306              		.cfi_offset 5, -20
 307              		.cfi_offset 6, -16
 308              		.cfi_offset 7, -12
 309              		.cfi_offset 8, -8
 310              		.cfi_offset 14, -4
 311 0004 86B0     		sub	sp, sp, #24
 312              	.LCFI2:
 313              		.cfi_def_cfa_offset 48
 155:Src/main.c    ****     
 156:Src/main.c    ****     uint32_t culmulative_hms = 3600 * BASE_HOUR + 60 * BASE_MINUTE + BASE_SECOND;
 314              		.loc 1 156 5 is_stmt 1 view .LVU71
 315              		.loc 1 156 37 is_stmt 0 view .LVU72
 316 0006 324B     		ldr	r3, .L27
 317 0008 1C68     		ldr	r4, [r3]
 318              		.loc 1 156 54 view .LVU73
 319 000a 324B     		ldr	r3, .L27+4
 320 000c 1B68     		ldr	r3, [r3]
 321 000e C3EB0313 		rsb	r3, r3, r3, lsl #4
 322 0012 9B00     		lsls	r3, r3, #2
 323              		.loc 1 156 49 view .LVU74
 324 0014 4FF46160 		mov	r0, #3600
 325              	.LVL21:
 326              		.loc 1 156 49 view .LVU75
 327 0018 00FB0433 		mla	r3, r0, r4, r3
 328              		.loc 1 156 68 view .LVU76
 329 001c 2E4A     		ldr	r2, .L27+8
 330 001e 1468     		ldr	r4, [r2]
 331              		.loc 1 156 14 view .LVU77
 332 0020 1C44     		add	r4, r4, r3
 333              	.LVL22:
 157:Src/main.c    ****     uint32_t currentTime = culmulative_hms + (HAL_GetTick() + elapsed) / 1000;
 334              		.loc 1 157 5 is_stmt 1 view .LVU78
 335              		.loc 1 157 47 is_stmt 0 view .LVU79
 336 0022 FFF7FEFF 		bl	HAL_GetTick
 337              	.LVL23:
 338              		.loc 1 157 61 view .LVU80
 339 0026 2D4B     		ldr	r3, .L27+12
 340 0028 1B68     		ldr	r3, [r3]
 341 002a 1844     		add	r0, r0, r3
 342              		.loc 1 157 72 view .LVU81
 343 002c 2C4B     		ldr	r3, .L27+16
 344 002e A3FB0030 		umull	r3, r0, r3, r0
 345              		.loc 1 157 14 view .LVU82
 346 0032 04EB9010 		add	r0, r4, r0, lsr #6
 347              	.LVL24:
 158:Src/main.c    ****     uint8_t hour = (currentTime / 3600) % 24;
 348              		.loc 1 158 5 is_stmt 1 view .LVU83
 349              		.loc 1 158 33 is_stmt 0 view .LVU84
 350 0036 2B4B     		ldr	r3, .L27+20
 351 0038 A3FB0023 		umull	r2, r3, r3, r0
 352 003c DB0A     		lsrs	r3, r3, #11
 353              		.loc 1 158 41 view .LVU85
 354 003e 2A4D     		ldr	r5, .L27+24
ARM GAS  /tmp/ccy4tSof.s 			page 10


 355 0040 A5FB0325 		umull	r2, r5, r5, r3
 356 0044 2D09     		lsrs	r5, r5, #4
 357 0046 05EB4505 		add	r5, r5, r5, lsl #1
 358 004a A3EBC505 		sub	r5, r3, r5, lsl #3
 359              	.LVL25:
 159:Src/main.c    ****     uint8_t minute = (currentTime / 60) % 60;
 360              		.loc 1 159 5 is_stmt 1 view .LVU86
 361              		.loc 1 159 35 is_stmt 0 view .LVU87
 362 004e 274C     		ldr	r4, .L27+28
 363              	.LVL26:
 364              		.loc 1 159 35 view .LVU88
 365 0050 A4FB0023 		umull	r2, r3, r4, r0
 366 0054 5B09     		lsrs	r3, r3, #5
 367              		.loc 1 159 41 view .LVU89
 368 0056 A4FB0324 		umull	r2, r4, r4, r3
 369 005a 6409     		lsrs	r4, r4, #5
 370 005c C4EB0414 		rsb	r4, r4, r4, lsl #4
 371 0060 A3EB8404 		sub	r4, r3, r4, lsl #2
 372              	.LVL27:
 160:Src/main.c    ****     uint8_t second = currentTime % 60;
 373              		.loc 1 160 5 is_stmt 1 view .LVU90
 374              		.loc 1 160 34 is_stmt 0 view .LVU91
 375 0064 C3EB0313 		rsb	r3, r3, r3, lsl #4
 376 0068 A0EB8306 		sub	r6, r0, r3, lsl #2
 377              	.LVL28:
 161:Src/main.c    **** 
 162:Src/main.c    ****     memset(gprmc_data, 0, sizeof(gprmc_data));
 378              		.loc 1 162 5 is_stmt 1 view .LVU92
 379 006c 204F     		ldr	r7, .L27+32
 380 006e 4FF06408 		mov	r8, #100
 381 0072 4246     		mov	r2, r8
 382 0074 0021     		movs	r1, #0
 383 0076 3846     		mov	r0, r7
 384              	.LVL29:
 385              		.loc 1 162 5 is_stmt 0 view .LVU93
 386 0078 FFF7FEFF 		bl	memset
 387              	.LVL30:
 163:Src/main.c    **** 
 164:Src/main.c    ****     // sprintf(gprmc_data, "$GPRMC,020008.00,A,2237.8840,N,11009.2400,E,0.00,0.00,120203,,,A*");
 165:Src/main.c    ****     sprintf(gprmc_data, "$GPRMC,%02d%02d%02d.00,A,%s,%s,0.00,0.00,%02d%02d%02d,,,A*",
 388              		.loc 1 165 5 is_stmt 1 view .LVU94
 389 007c 1D4B     		ldr	r3, .L27+36
 390 007e 1B68     		ldr	r3, [r3]
 391 0080 1D4A     		ldr	r2, .L27+40
 392 0082 A2FB0312 		umull	r1, r2, r2, r3
 393 0086 5209     		lsrs	r2, r2, #5
 394 0088 08FB1232 		mls	r2, r8, r2, r3
 395 008c 0592     		str	r2, [sp, #20]
 396 008e 1B4B     		ldr	r3, .L27+44
 397 0090 1B68     		ldr	r3, [r3]
 398 0092 0493     		str	r3, [sp, #16]
 399 0094 1A4B     		ldr	r3, .L27+48
 400 0096 1B68     		ldr	r3, [r3]
 401 0098 0393     		str	r3, [sp, #12]
 402 009a 1A4B     		ldr	r3, .L27+52
 403 009c 0293     		str	r3, [sp, #8]
 404 009e 1A4B     		ldr	r3, .L27+56
ARM GAS  /tmp/ccy4tSof.s 			page 11


 405 00a0 0193     		str	r3, [sp, #4]
 406 00a2 F6B2     		uxtb	r6, r6
 407              		.loc 1 165 5 is_stmt 0 view .LVU95
 408 00a4 0096     		str	r6, [sp]
 409 00a6 E3B2     		uxtb	r3, r4
 410 00a8 EAB2     		uxtb	r2, r5
 411 00aa 1849     		ldr	r1, .L27+60
 412 00ac 3846     		mov	r0, r7
 413 00ae FFF7FEFF 		bl	sprintf
 414              	.LVL31:
 166:Src/main.c    ****             hour, minute, second, LATITUDE, LONGITUDE, BASE_DAY, BASE_MONTH, (BASE_YEAR % 100));
 167:Src/main.c    ****     
 168:Src/main.c    **** 
 169:Src/main.c    ****     // check sum
 170:Src/main.c    ****     uint8_t checksum = nmea_checksum(gprmc_data);
 415              		.loc 1 170 5 is_stmt 1 view .LVU96
 416              		.loc 1 170 24 is_stmt 0 view .LVU97
 417 00b2 3846     		mov	r0, r7
 418 00b4 FFF7FEFF 		bl	nmea_checksum
 419              	.LVL32:
 420 00b8 0446     		mov	r4, r0
 421              	.LVL33:
 171:Src/main.c    ****     
 172:Src/main.c    ****     int length = strlen(gprmc_data);
 422              		.loc 1 172 5 is_stmt 1 view .LVU98
 423              		.loc 1 172 18 is_stmt 0 view .LVU99
 424 00ba 3846     		mov	r0, r7
 425 00bc FFF7FEFF 		bl	strlen
 426              	.LVL34:
 173:Src/main.c    ****     sprintf(gprmc_data + length, "%02X\r\n", checksum);
 427              		.loc 1 173 5 is_stmt 1 view .LVU100
 428 00c0 2246     		mov	r2, r4
 429 00c2 1349     		ldr	r1, .L27+64
 430 00c4 3844     		add	r0, r0, r7
 431              	.LVL35:
 432              		.loc 1 173 5 is_stmt 0 view .LVU101
 433 00c6 FFF7FEFF 		bl	sprintf
 434              	.LVL36:
 174:Src/main.c    **** 
 175:Src/main.c    **** }
 435              		.loc 1 175 1 view .LVU102
 436 00ca 06B0     		add	sp, sp, #24
 437              	.LCFI3:
 438              		.cfi_def_cfa_offset 24
 439              		@ sp needed
 440 00cc BDE8F081 		pop	{r4, r5, r6, r7, r8, pc}
 441              	.LVL37:
 442              	.L28:
 443              		.loc 1 175 1 view .LVU103
 444              		.align	2
 445              	.L27:
 446 00d0 00000000 		.word	.LANCHOR0
 447 00d4 00000000 		.word	.LANCHOR1
 448 00d8 00000000 		.word	.LANCHOR2
 449 00dc 00000000 		.word	.LANCHOR3
 450 00e0 D34D6210 		.word	274877907
 451 00e4 C5B3A291 		.word	-1851608123
ARM GAS  /tmp/ccy4tSof.s 			page 12


 452 00e8 ABAAAAAA 		.word	-1431655765
 453 00ec 89888888 		.word	-2004318071
 454 00f0 00000000 		.word	gprmc_data
 455 00f4 00000000 		.word	.LANCHOR4
 456 00f8 1F85EB51 		.word	1374389535
 457 00fc 00000000 		.word	.LANCHOR5
 458 0100 00000000 		.word	.LANCHOR6
 459 0104 00000000 		.word	.LANCHOR7
 460 0108 00000000 		.word	.LANCHOR8
 461 010c 00000000 		.word	.LC0
 462 0110 3C000000 		.word	.LC1
 463              		.cfi_endproc
 464              	.LFE72:
 466              		.section	.text.TIM2_IRQHandler,"ax",%progbits
 467              		.align	1
 468              		.global	TIM2_IRQHandler
 469              		.syntax unified
 470              		.thumb
 471              		.thumb_func
 472              		.fpu softvfp
 474              	TIM2_IRQHandler:
 475              	.LFB73:
 176:Src/main.c    **** 
 177:Src/main.c    **** 
 178:Src/main.c    **** 
 179:Src/main.c    **** 
 180:Src/main.c    **** volatile uint8_t enable_synchrone = 1;
 181:Src/main.c    **** 
 182:Src/main.c    **** void TIM2_IRQHandler(void)
 183:Src/main.c    **** {
 476              		.loc 1 183 1 is_stmt 1 view -0
 477              		.cfi_startproc
 478              		@ args = 0, pretend = 0, frame = 0
 479              		@ frame_needed = 0, uses_anonymous_args = 0
 480 0000 08B5     		push	{r3, lr}
 481              	.LCFI4:
 482              		.cfi_def_cfa_offset 8
 483              		.cfi_offset 3, -8
 484              		.cfi_offset 14, -4
 184:Src/main.c    ****     if(__HAL_TIM_GET_FLAG(&htim2, TIM_FLAG_TRIGGER) != RESET) {
 485              		.loc 1 184 5 view .LVU105
 486              		.loc 1 184 8 is_stmt 0 view .LVU106
 487 0002 124B     		ldr	r3, .L34
 488 0004 1B68     		ldr	r3, [r3]
 489 0006 1A69     		ldr	r2, [r3, #16]
 490              		.loc 1 184 7 view .LVU107
 491 0008 12F0400F 		tst	r2, #64
 492 000c 08D0     		beq	.L30
 185:Src/main.c    ****         __HAL_TIM_CLEAR_IT(&htim2, TIM_IT_TRIGGER);
 493              		.loc 1 185 9 is_stmt 1 view .LVU108
 494 000e 6FF04002 		mvn	r2, #64
 495 0012 1A61     		str	r2, [r3, #16]
 186:Src/main.c    **** 
 187:Src/main.c    ****         enable_synchrone = !enable_synchrone;
 496              		.loc 1 187 9 view .LVU109
 497              		.loc 1 187 28 is_stmt 0 view .LVU110
 498 0014 0E49     		ldr	r1, .L34+4
ARM GAS  /tmp/ccy4tSof.s 			page 13


 499 0016 0A78     		ldrb	r2, [r1]	@ zero_extendqisi2
 500 0018 B2FA82F2 		clz	r2, r2
 501 001c 5209     		lsrs	r2, r2, #5
 502              		.loc 1 187 26 view .LVU111
 503 001e 0A70     		strb	r2, [r1]
 504              	.L30:
 188:Src/main.c    **** 
 189:Src/main.c    ****     }
 190:Src/main.c    **** 
 191:Src/main.c    ****     if (__HAL_TIM_GET_FLAG(&htim2, TIM_FLAG_UPDATE) != RESET) {
 505              		.loc 1 191 5 is_stmt 1 view .LVU112
 506              		.loc 1 191 9 is_stmt 0 view .LVU113
 507 0020 1A69     		ldr	r2, [r3, #16]
 508              		.loc 1 191 8 view .LVU114
 509 0022 12F0010F 		tst	r2, #1
 510 0026 05D0     		beq	.L29
 192:Src/main.c    ****         __HAL_TIM_CLEAR_IT(&htim2, TIM_IT_UPDATE);
 511              		.loc 1 192 9 is_stmt 1 view .LVU115
 512 0028 6FF00102 		mvn	r2, #1
 513 002c 1A61     		str	r2, [r3, #16]
 193:Src/main.c    **** 
 194:Src/main.c    ****         if(!enable_synchrone)
 514              		.loc 1 194 9 view .LVU116
 515              		.loc 1 194 12 is_stmt 0 view .LVU117
 516 002e 084B     		ldr	r3, .L34+4
 517 0030 1B78     		ldrb	r3, [r3]	@ zero_extendqisi2
 518              		.loc 1 194 11 view .LVU118
 519 0032 03B1     		cbz	r3, .L33
 520              	.L29:
 195:Src/main.c    ****         {
 196:Src/main.c    ****             HAL_GPIO_WritePin(GPIOC, GPIO_PIN_5, RESET); 
 197:Src/main.c    ****             HAL_GPIO_WritePin(GPIOB, GPIO_PIN_2, SET); 
 198:Src/main.c    ****         } 
 199:Src/main.c    ****     }
 200:Src/main.c    **** }
 521              		.loc 1 200 1 view .LVU119
 522 0034 08BD     		pop	{r3, pc}
 523              	.L33:
 196:Src/main.c    ****             HAL_GPIO_WritePin(GPIOB, GPIO_PIN_2, SET); 
 524              		.loc 1 196 13 is_stmt 1 view .LVU120
 525 0036 0022     		movs	r2, #0
 526 0038 2021     		movs	r1, #32
 527 003a 0648     		ldr	r0, .L34+8
 528 003c FFF7FEFF 		bl	HAL_GPIO_WritePin
 529              	.LVL38:
 197:Src/main.c    ****         } 
 530              		.loc 1 197 13 view .LVU121
 531 0040 0122     		movs	r2, #1
 532 0042 0421     		movs	r1, #4
 533 0044 0448     		ldr	r0, .L34+12
 534 0046 FFF7FEFF 		bl	HAL_GPIO_WritePin
 535              	.LVL39:
 536              		.loc 1 200 1 is_stmt 0 view .LVU122
 537 004a F3E7     		b	.L29
 538              	.L35:
 539              		.align	2
 540              	.L34:
ARM GAS  /tmp/ccy4tSof.s 			page 14


 541 004c 00000000 		.word	htim2
 542 0050 00000000 		.word	.LANCHOR9
 543 0054 00100140 		.word	1073811456
 544 0058 000C0140 		.word	1073810432
 545              		.cfi_endproc
 546              	.LFE73:
 548              		.section	.text.HAL_TIM_PeriodElapsedCallback,"ax",%progbits
 549              		.align	1
 550              		.global	HAL_TIM_PeriodElapsedCallback
 551              		.syntax unified
 552              		.thumb
 553              		.thumb_func
 554              		.fpu softvfp
 556              	HAL_TIM_PeriodElapsedCallback:
 557              	.LVL40:
 558              	.LFB74:
 201:Src/main.c    **** 
 202:Src/main.c    **** 
 203:Src/main.c    **** 
 204:Src/main.c    **** 
 205:Src/main.c    **** volatile uint8_t trigger_led_flag = 0;
 206:Src/main.c    **** int trigger_led_count = 0;
 207:Src/main.c    **** volatile uint8_t pps_flag = 0;
 208:Src/main.c    **** int pps_count = 0;
 209:Src/main.c    **** volatile uint8_t gprmc_led_flag = 0;
 210:Src/main.c    **** int gprmc_led_count = 0;
 211:Src/main.c    **** 
 212:Src/main.c    **** volatile uint8_t uart_transmit_flag = 0;
 213:Src/main.c    **** 
 214:Src/main.c    **** void HAL_TIM_PeriodElapsedCallback(TIM_HandleTypeDef *htim)
 215:Src/main.c    **** {
 559              		.loc 1 215 1 is_stmt 1 view -0
 560              		.cfi_startproc
 561              		@ args = 0, pretend = 0, frame = 0
 562              		@ frame_needed = 0, uses_anonymous_args = 0
 563              		.loc 1 215 1 is_stmt 0 view .LVU124
 564 0000 08B5     		push	{r3, lr}
 565              	.LCFI5:
 566              		.cfi_def_cfa_offset 8
 567              		.cfi_offset 3, -8
 568              		.cfi_offset 14, -4
 216:Src/main.c    ****     if (htim->Instance == TIM3) {
 569              		.loc 1 216 5 is_stmt 1 view .LVU125
 570              		.loc 1 216 13 is_stmt 0 view .LVU126
 571 0002 0268     		ldr	r2, [r0]
 572              		.loc 1 216 8 view .LVU127
 573 0004 134B     		ldr	r3, .L43
 574 0006 9A42     		cmp	r2, r3
 575 0008 00D0     		beq	.L41
 576              	.LVL41:
 577              	.L36:
 217:Src/main.c    ****       
 218:Src/main.c    ****         if (trigger_led_flag) {
 219:Src/main.c    **** 
 220:Src/main.c    ****             trigger_led_count ++;
 221:Src/main.c    ****             
 222:Src/main.c    ****         }
ARM GAS  /tmp/ccy4tSof.s 			page 15


 223:Src/main.c    ****         if (pps_flag) {
 224:Src/main.c    **** 
 225:Src/main.c    ****             pps_count ++;
 226:Src/main.c    **** 
 227:Src/main.c    ****             if (pps_count >= 2)
 228:Src/main.c    ****             {
 229:Src/main.c    ****                 pps_flag = 0;
 230:Src/main.c    ****                 pps_count = 0;
 231:Src/main.c    ****                 HAL_GPIO_WritePin(GPIOB, GPIO_PIN_3, GPIO_PIN_RESET); // PPS LOW
 232:Src/main.c    ****             }
 233:Src/main.c    ****             
 234:Src/main.c    ****         }
 235:Src/main.c    ****         if (gprmc_led_flag) {
 236:Src/main.c    **** 
 237:Src/main.c    ****             gprmc_led_count ++;
 238:Src/main.c    ****             
 239:Src/main.c    ****         }
 240:Src/main.c    ****     }
 241:Src/main.c    **** 
 242:Src/main.c    **** }
 578              		.loc 1 242 1 view .LVU128
 579 000a 08BD     		pop	{r3, pc}
 580              	.LVL42:
 581              	.L41:
 218:Src/main.c    **** 
 582              		.loc 1 218 9 is_stmt 1 view .LVU129
 218:Src/main.c    **** 
 583              		.loc 1 218 13 is_stmt 0 view .LVU130
 584 000c 124B     		ldr	r3, .L43+4
 585 000e 1B78     		ldrb	r3, [r3]	@ zero_extendqisi2
 218:Src/main.c    **** 
 586              		.loc 1 218 12 view .LVU131
 587 0010 1BB1     		cbz	r3, .L38
 220:Src/main.c    ****             
 588              		.loc 1 220 13 is_stmt 1 view .LVU132
 220:Src/main.c    ****             
 589              		.loc 1 220 31 is_stmt 0 view .LVU133
 590 0012 124A     		ldr	r2, .L43+8
 591 0014 1368     		ldr	r3, [r2]
 592 0016 0133     		adds	r3, r3, #1
 593 0018 1360     		str	r3, [r2]
 594              	.L38:
 223:Src/main.c    **** 
 595              		.loc 1 223 9 is_stmt 1 view .LVU134
 223:Src/main.c    **** 
 596              		.loc 1 223 13 is_stmt 0 view .LVU135
 597 001a 114B     		ldr	r3, .L43+12
 598 001c 1B78     		ldrb	r3, [r3]	@ zero_extendqisi2
 223:Src/main.c    **** 
 599              		.loc 1 223 12 view .LVU136
 600 001e 2BB1     		cbz	r3, .L39
 225:Src/main.c    **** 
 601              		.loc 1 225 13 is_stmt 1 view .LVU137
 225:Src/main.c    **** 
 602              		.loc 1 225 23 is_stmt 0 view .LVU138
 603 0020 104A     		ldr	r2, .L43+16
 604 0022 1368     		ldr	r3, [r2]
ARM GAS  /tmp/ccy4tSof.s 			page 16


 605 0024 0133     		adds	r3, r3, #1
 606 0026 1360     		str	r3, [r2]
 227:Src/main.c    ****             {
 607              		.loc 1 227 13 is_stmt 1 view .LVU139
 227:Src/main.c    ****             {
 608              		.loc 1 227 16 is_stmt 0 view .LVU140
 609 0028 012B     		cmp	r3, #1
 610 002a 08DC     		bgt	.L42
 611              	.LVL43:
 612              	.L39:
 235:Src/main.c    **** 
 613              		.loc 1 235 9 is_stmt 1 view .LVU141
 235:Src/main.c    **** 
 614              		.loc 1 235 13 is_stmt 0 view .LVU142
 615 002c 0E4B     		ldr	r3, .L43+20
 616 002e 1B78     		ldrb	r3, [r3]	@ zero_extendqisi2
 235:Src/main.c    **** 
 617              		.loc 1 235 12 view .LVU143
 618 0030 002B     		cmp	r3, #0
 619 0032 EAD0     		beq	.L36
 237:Src/main.c    ****             
 620              		.loc 1 237 13 is_stmt 1 view .LVU144
 237:Src/main.c    ****             
 621              		.loc 1 237 29 is_stmt 0 view .LVU145
 622 0034 0D4A     		ldr	r2, .L43+24
 623 0036 1368     		ldr	r3, [r2]
 624 0038 0133     		adds	r3, r3, #1
 625 003a 1360     		str	r3, [r2]
 626              		.loc 1 242 1 view .LVU146
 627 003c E5E7     		b	.L36
 628              	.LVL44:
 629              	.L42:
 229:Src/main.c    ****                 pps_count = 0;
 630              		.loc 1 229 17 is_stmt 1 view .LVU147
 229:Src/main.c    ****                 pps_count = 0;
 631              		.loc 1 229 26 is_stmt 0 view .LVU148
 632 003e 0022     		movs	r2, #0
 633 0040 074B     		ldr	r3, .L43+12
 634 0042 1A70     		strb	r2, [r3]
 230:Src/main.c    ****                 HAL_GPIO_WritePin(GPIOB, GPIO_PIN_3, GPIO_PIN_RESET); // PPS LOW
 635              		.loc 1 230 17 is_stmt 1 view .LVU149
 230:Src/main.c    ****                 HAL_GPIO_WritePin(GPIOB, GPIO_PIN_3, GPIO_PIN_RESET); // PPS LOW
 636              		.loc 1 230 27 is_stmt 0 view .LVU150
 637 0044 074B     		ldr	r3, .L43+16
 638 0046 1A60     		str	r2, [r3]
 231:Src/main.c    ****             }
 639              		.loc 1 231 17 is_stmt 1 view .LVU151
 640 0048 0821     		movs	r1, #8
 641 004a 0948     		ldr	r0, .L43+28
 642              	.LVL45:
 231:Src/main.c    ****             }
 643              		.loc 1 231 17 is_stmt 0 view .LVU152
 644 004c FFF7FEFF 		bl	HAL_GPIO_WritePin
 645              	.LVL46:
 646 0050 ECE7     		b	.L39
 647              	.L44:
 648 0052 00BF     		.align	2
ARM GAS  /tmp/ccy4tSof.s 			page 17


 649              	.L43:
 650 0054 00040040 		.word	1073742848
 651 0058 00000000 		.word	.LANCHOR10
 652 005c 00000000 		.word	.LANCHOR11
 653 0060 00000000 		.word	.LANCHOR12
 654 0064 00000000 		.word	.LANCHOR13
 655 0068 00000000 		.word	.LANCHOR14
 656 006c 00000000 		.word	.LANCHOR15
 657 0070 000C0140 		.word	1073810432
 658              		.cfi_endproc
 659              	.LFE74:
 661              		.section	.text.HAL_UART_TxCpltCallback,"ax",%progbits
 662              		.align	1
 663              		.global	HAL_UART_TxCpltCallback
 664              		.syntax unified
 665              		.thumb
 666              		.thumb_func
 667              		.fpu softvfp
 669              	HAL_UART_TxCpltCallback:
 670              	.LVL47:
 671              	.LFB76:
 243:Src/main.c    **** 
 244:Src/main.c    **** uint32_t pps_offset = 397;
 245:Src/main.c    **** uint32_t for_delay = 0;
 246:Src/main.c    **** // uint32_t pps_offset = 390;
 247:Src/main.c    **** // uint32_t for_delay = 35;
 248:Src/main.c    **** // uint32_t pps_offset = 0;
 249:Src/main.c    **** // uint32_t for_delay = 0;
 250:Src/main.c    **** void TIM4_IRQHandler(void) {
 251:Src/main.c    ****     if (__HAL_TIM_GET_FLAG(&htim4, TIM_FLAG_UPDATE) != RESET) {
 252:Src/main.c    ****         __HAL_TIM_CLEAR_IT(&htim4, TIM_IT_UPDATE);
 253:Src/main.c    ****         
 254:Src/main.c    ****         static uint32_t count_10hz = 0, count_1hz = 0;
 255:Src/main.c    ****         
 256:Src/main.c    ****         if (++count_10hz >= 500) {
 257:Src/main.c    ****             count_10hz = 0;
 258:Src/main.c    ****             trigger_flag = 1;
 259:Src/main.c    ****         }
 260:Src/main.c    ****         
 261:Src/main.c    ****         if (++count_1hz >= 5000) {
 262:Src/main.c    ****             count_1hz = 0;
 263:Src/main.c    ****             send_gps_flag = 1;
 264:Src/main.c    **** 
 265:Src/main.c    ****             if(pps_flag) {
 266:Src/main.c    ****               Error_Handler();
 267:Src/main.c    ****             }
 268:Src/main.c    ****             DWT_Delay(pps_offset);
 269:Src/main.c    ****             for(int i = 0; i < for_delay; i ++);
 270:Src/main.c    ****             HAL_GPIO_WritePin(GPIOB, GPIO_PIN_3, GPIO_PIN_SET); // PPS HIGH
 271:Src/main.c    ****             pps_flag = 1;  // Set flag to turn off PPS in ISR after 100 ms
 272:Src/main.c    ****         }
 273:Src/main.c    **** 
 274:Src/main.c    ****     }
 275:Src/main.c    **** }
 276:Src/main.c    **** 
 277:Src/main.c    **** 
 278:Src/main.c    **** void HAL_UART_TxCpltCallback(UART_HandleTypeDef *huart)
ARM GAS  /tmp/ccy4tSof.s 			page 18


 279:Src/main.c    **** {
 672              		.loc 1 279 1 is_stmt 1 view -0
 673              		.cfi_startproc
 674              		@ args = 0, pretend = 0, frame = 0
 675              		@ frame_needed = 0, uses_anonymous_args = 0
 676              		@ link register save eliminated.
 280:Src/main.c    ****     if (huart->Instance == USART1 || huart->Instance == USART3)
 677              		.loc 1 280 5 view .LVU154
 678              		.loc 1 280 14 is_stmt 0 view .LVU155
 679 0000 0368     		ldr	r3, [r0]
 680              		.loc 1 280 8 view .LVU156
 681 0002 054A     		ldr	r2, .L48
 682 0004 9342     		cmp	r3, r2
 683 0006 03D0     		beq	.L46
 684              		.loc 1 280 35 discriminator 1 view .LVU157
 685 0008 A2F57042 		sub	r2, r2, #61440
 686 000c 9342     		cmp	r3, r2
 687 000e 02D1     		bne	.L45
 688              	.L46:
 281:Src/main.c    ****     {
 282:Src/main.c    ****         gprmc_led_flag = 0;
 689              		.loc 1 282 9 is_stmt 1 view .LVU158
 690              		.loc 1 282 24 is_stmt 0 view .LVU159
 691 0010 024B     		ldr	r3, .L48+4
 692 0012 0022     		movs	r2, #0
 693 0014 1A70     		strb	r2, [r3]
 694              	.L45:
 283:Src/main.c    ****     }
 284:Src/main.c    **** }
 695              		.loc 1 284 1 view .LVU160
 696 0016 7047     		bx	lr
 697              	.L49:
 698              		.align	2
 699              	.L48:
 700 0018 00380140 		.word	1073821696
 701 001c 00000000 		.word	.LANCHOR14
 702              		.cfi_endproc
 703              	.LFE76:
 705              		.section	.rodata.ProcessReceivedData.str1.4,"aMS",%progbits,1
 706              		.align	2
 707              	.LC2:
 708 0000 53657420 		.ascii	"Set pps_offset = %ld\012\000"
 708      7070735F 
 708      6F666673 
 708      6574203D 
 708      20256C64 
 709 0016 0000     		.align	2
 710              	.LC4:
 711 0018 24475052 		.ascii	"$GPRMC\000"
 711      4D4300
 712 001f 00       		.align	2
 713              	.LC5:
 714 0020 2C00     		.ascii	",\000"
 715 0022 0000     		.align	2
 716              	.LC3:
 717 0024 4661696C 		.ascii	"Fail to set pps_offset! Invalid input as number.\012"
 717      20746F20 
ARM GAS  /tmp/ccy4tSof.s 			page 19


 717      73657420 
 717      7070735F 
 717      6F666673 
 718 0055 00       		.ascii	"\000"
 719 0056 0000     		.align	2
 720              	.LC6:
 721 0058 4661696C 		.ascii	"Fail to set GPRMC data! Invalid GPRMC data!\000"
 721      20746F20 
 721      73657420 
 721      4750524D 
 721      43206461 
 722              		.section	.text.ProcessReceivedData,"ax",%progbits
 723              		.align	1
 724              		.global	ProcessReceivedData
 725              		.syntax unified
 726              		.thumb
 727              		.thumb_func
 728              		.fpu softvfp
 730              	ProcessReceivedData:
 731              	.LVL48:
 732              	.LFB77:
 285:Src/main.c    **** 
 286:Src/main.c    **** 
 287:Src/main.c    **** 
 288:Src/main.c    **** void ProcessReceivedData(uint8_t data) {
 733              		.loc 1 288 40 is_stmt 1 view -0
 734              		.cfi_startproc
 735              		@ args = 0, pretend = 0, frame = 104
 736              		@ frame_needed = 0, uses_anonymous_args = 0
 289:Src/main.c    ****     static char buffer[1024];
 737              		.loc 1 289 5 view .LVU162
 290:Src/main.c    ****     static int index = 0;
 738              		.loc 1 290 5 view .LVU163
 291:Src/main.c    **** 
 292:Src/main.c    ****     // 接收到换行符，处理数据
 293:Src/main.c    ****     if (data == '\n' || data == '\0') {
 739              		.loc 1 293 5 view .LVU164
 740              		.loc 1 293 8 is_stmt 0 view .LVU165
 741 0000 0A28     		cmp	r0, #10
 742 0002 02D0     		beq	.L51
 743              		.loc 1 293 22 discriminator 1 view .LVU166
 744 0004 0028     		cmp	r0, #0
 745 0006 40F0FE80 		bne	.L52
 746              	.L51:
 288:Src/main.c    ****     static char buffer[1024];
 747              		.loc 1 288 40 view .LVU167
 748 000a 70B5     		push	{r4, r5, r6, lr}
 749              	.LCFI6:
 750              		.cfi_def_cfa_offset 16
 751              		.cfi_offset 4, -16
 752              		.cfi_offset 5, -12
 753              		.cfi_offset 6, -8
 754              		.cfi_offset 14, -4
 755 000c 9AB0     		sub	sp, sp, #104
 756              	.LCFI7:
 757              		.cfi_def_cfa_offset 120
 294:Src/main.c    ****         buffer[index] = '\0'; 
ARM GAS  /tmp/ccy4tSof.s 			page 20


 758              		.loc 1 294 9 is_stmt 1 view .LVU168
 759              		.loc 1 294 15 is_stmt 0 view .LVU169
 760 000e 844B     		ldr	r3, .L78
 761 0010 1A68     		ldr	r2, [r3]
 762              		.loc 1 294 23 view .LVU170
 763 0012 844B     		ldr	r3, .L78+4
 764 0014 0021     		movs	r1, #0
 765 0016 9954     		strb	r1, [r3, r2]
 295:Src/main.c    ****         
 296:Src/main.c    ****         // 如果第一个字符是 #
 297:Src/main.c    ****         if (buffer[0] == '#') {
 766              		.loc 1 297 9 is_stmt 1 view .LVU171
 767              		.loc 1 297 19 is_stmt 0 view .LVU172
 768 0018 1B78     		ldrb	r3, [r3]	@ zero_extendqisi2
 769              		.loc 1 297 12 view .LVU173
 770 001a 232B     		cmp	r3, #35
 771 001c 0CD0     		beq	.L74
 298:Src/main.c    ****             char *ptr;
 299:Src/main.c    ****             long num = strtol(buffer + 1, &ptr, 10);  // 尝试将字符串转换为长整型数字
 300:Src/main.c    ****             if (*ptr == '\0') {  // 检查转换后的剩余部分是否为空
 301:Src/main.c    ****                 pps_offset = (uint32_t)num;
 302:Src/main.c    **** 
 303:Src/main.c    ****                 char output_log[100];
 304:Src/main.c    ****                 sprintf(output_log, "Set pps_offset = %ld\n", pps_offset);
 305:Src/main.c    ****                 HAL_UART_Transmit(&huart1, (uint8_t *)output_log, strlen(output_log), 1000);
 306:Src/main.c    ****             } else {
 307:Src/main.c    **** 
 308:Src/main.c    ****                 char output_log[] = "Fail to set pps_offset! Invalid input as number.\n";
 309:Src/main.c    ****                 HAL_UART_Transmit(&huart1, (uint8_t *)output_log, strlen(output_log), 1000);
 310:Src/main.c    ****                 return;
 311:Src/main.c    ****             }
 312:Src/main.c    ****         }
 313:Src/main.c    ****         // 如果第一个字符是 $
 314:Src/main.c    ****         else if (buffer[0] == '$') {
 772              		.loc 1 314 14 is_stmt 1 view .LVU174
 773              		.loc 1 314 17 is_stmt 0 view .LVU175
 774 001e 242B     		cmp	r3, #36
 775 0020 39D0     		beq	.L75
 776              	.LVL49:
 777              	.L55:
 315:Src/main.c    ****             if (strncmp(buffer, "$GPRMC", 6) == 0) {
 316:Src/main.c    ****                 int commaCount = 0;
 317:Src/main.c    ****                 for (int i = 0; buffer[i]; i++) {
 318:Src/main.c    ****                     if (buffer[i] == ',') commaCount++;
 319:Src/main.c    ****                 }
 320:Src/main.c    ****                 // 检查逗号数量是否符合最低要求
 321:Src/main.c    ****                 if (commaCount >= 11) { // GPRMC 应该至少有 12 个字段，即至少 11 个逗
 322:Src/main.c    ****                     // 解析 GPRMC 数据
 323:Src/main.c    ****                     char *token = strtok(buffer, ",");
 324:Src/main.c    ****                     int tokenIndex = 0;
 325:Src/main.c    ****                     while (token != NULL) {
 326:Src/main.c    ****                         token = strtok(NULL, ",");
 327:Src/main.c    ****                         tokenIndex++;
 328:Src/main.c    **** 
 329:Src/main.c    ****                     
 330:Src/main.c    ****                         // 根据 GPRMC 的格式选择数据
 331:Src/main.c    ****                         switch (tokenIndex) {
ARM GAS  /tmp/ccy4tSof.s 			page 21


 332:Src/main.c    ****                             case 1: // 时间
 333:Src/main.c    ****                                 BASE_HOUR = atoi(token) / 10000;
 334:Src/main.c    ****                                 BASE_MINUTE = (atoi(token) % 10000) / 100;
 335:Src/main.c    ****                                 BASE_SECOND = atoi(token) % 100;
 336:Src/main.c    ****                                 break;
 337:Src/main.c    ****                             case 3: // 纬度
 338:Src/main.c    ****                                 strncpy(LATITUDE, token, sizeof(LATITUDE) - 1);
 339:Src/main.c    ****                                 LATITUDE[sizeof(LATITUDE) - 1] = '\0';  // 确保字符串以null
 340:Src/main.c    ****                                 break;
 341:Src/main.c    ****                             case 4: // 纬度方向
 342:Src/main.c    ****                                 if (strlen(LATITUDE) + 2 < sizeof(LATITUDE)) {  // 检查空间是
 343:Src/main.c    ****                                     strncat(LATITUDE, ",", 1);  // 首先添加逗号
 344:Src/main.c    ****                                     strncat(LATITUDE, token, sizeof(LATITUDE) - strlen(LATITUDE) - 
 345:Src/main.c    ****                                 }
 346:Src/main.c    ****                                 break;
 347:Src/main.c    ****                             case 5: // 经度
 348:Src/main.c    ****                                 strncpy(LONGITUDE, token, sizeof(LONGITUDE) - 1);
 349:Src/main.c    ****                                 LONGITUDE[sizeof(LONGITUDE) - 1] = '\0';  // 确保字符串以null
 350:Src/main.c    ****                                 break;
 351:Src/main.c    ****                             case 6: // 经度方向
 352:Src/main.c    ****                                 if (strlen(LONGITUDE) + 2 < sizeof(LONGITUDE)) {  // 检查空间
 353:Src/main.c    ****                                     strncat(LONGITUDE, ",", 1);  // 首先添加逗号
 354:Src/main.c    ****                                     strncat(LONGITUDE, token, sizeof(LONGITUDE) - strlen(LONGITUDE)
 355:Src/main.c    ****                                 }
 356:Src/main.c    ****                                 break;
 357:Src/main.c    ****                         }
 358:Src/main.c    ****                     }
 359:Src/main.c    ****                     elapsed = baseTick - HAL_GetTick();
 360:Src/main.c    **** 
 361:Src/main.c    ****                 } else {
 362:Src/main.c    ****                     char output_log[] = "Fail to set GPRMC data! Invalid GPRMC data!";
 363:Src/main.c    ****                     HAL_UART_Transmit(&huart1, (uint8_t *)output_log, strlen(output_log), 1000);
 364:Src/main.c    ****                     return;
 365:Src/main.c    ****                 }
 366:Src/main.c    ****             }
 367:Src/main.c    ****         }
 368:Src/main.c    **** 
 369:Src/main.c    ****         memset(buffer, 0, sizeof(buffer)); // 显式清空缓冲区
 778              		.loc 1 369 9 is_stmt 1 view .LVU176
 779 0022 4FF48062 		mov	r2, #1024
 780 0026 0021     		movs	r1, #0
 781 0028 7E48     		ldr	r0, .L78+4
 782 002a FFF7FEFF 		bl	memset
 783              	.LVL50:
 370:Src/main.c    ****         index = 0; // 重置缓冲区索引
 784              		.loc 1 370 9 view .LVU177
 785              		.loc 1 370 15 is_stmt 0 view .LVU178
 786 002e 7C4B     		ldr	r3, .L78
 787 0030 0022     		movs	r2, #0
 788 0032 1A60     		str	r2, [r3]
 789              	.L50:
 371:Src/main.c    **** 
 372:Src/main.c    ****     } else {
 373:Src/main.c    ****         // 持续接收数据
 374:Src/main.c    ****         if (index < (sizeof(buffer) - 1)) {
 375:Src/main.c    ****             buffer[index++] = data;
 376:Src/main.c    ****         }
ARM GAS  /tmp/ccy4tSof.s 			page 22


 377:Src/main.c    ****     }
 378:Src/main.c    **** }
 790              		.loc 1 378 1 view .LVU179
 791 0034 1AB0     		add	sp, sp, #104
 792              	.LCFI8:
 793              		.cfi_remember_state
 794              		.cfi_def_cfa_offset 16
 795              		@ sp needed
 796 0036 70BD     		pop	{r4, r5, r6, pc}
 797              	.LVL51:
 798              	.L74:
 799              	.LCFI9:
 800              		.cfi_restore_state
 801              	.LBB4:
 298:Src/main.c    ****             long num = strtol(buffer + 1, &ptr, 10);  // 尝试将字符串转换为长整型数字
 802              		.loc 1 298 13 is_stmt 1 view .LVU180
 299:Src/main.c    ****             if (*ptr == '\0') {  // 检查转换后的剩余部分是否为空
 803              		.loc 1 299 13 view .LVU181
 299:Src/main.c    ****             if (*ptr == '\0') {  // 检查转换后的剩余部分是否为空
 804              		.loc 1 299 24 is_stmt 0 view .LVU182
 805 0038 0A22     		movs	r2, #10
 806 003a 6946     		mov	r1, sp
 807 003c 7A48     		ldr	r0, .L78+8
 808              	.LVL52:
 299:Src/main.c    ****             if (*ptr == '\0') {  // 检查转换后的剩余部分是否为空
 809              		.loc 1 299 24 view .LVU183
 810 003e FFF7FEFF 		bl	strtol
 811              	.LVL53:
 812 0042 0246     		mov	r2, r0
 813              	.LVL54:
 300:Src/main.c    ****                 pps_offset = (uint32_t)num;
 814              		.loc 1 300 13 is_stmt 1 view .LVU184
 300:Src/main.c    ****                 pps_offset = (uint32_t)num;
 815              		.loc 1 300 17 is_stmt 0 view .LVU185
 816 0044 009B     		ldr	r3, [sp]
 817 0046 1B78     		ldrb	r3, [r3]	@ zero_extendqisi2
 300:Src/main.c    ****                 pps_offset = (uint32_t)num;
 818              		.loc 1 300 16 view .LVU186
 819 0048 83B9     		cbnz	r3, .L54
 820              	.LBB5:
 301:Src/main.c    **** 
 821              		.loc 1 301 17 is_stmt 1 view .LVU187
 301:Src/main.c    **** 
 822              		.loc 1 301 28 is_stmt 0 view .LVU188
 823 004a 784B     		ldr	r3, .L78+12
 824 004c 1860     		str	r0, [r3]
 303:Src/main.c    ****                 sprintf(output_log, "Set pps_offset = %ld\n", pps_offset);
 825              		.loc 1 303 17 is_stmt 1 view .LVU189
 304:Src/main.c    ****                 HAL_UART_Transmit(&huart1, (uint8_t *)output_log, strlen(output_log), 1000);
 826              		.loc 1 304 17 view .LVU190
 827 004e 7849     		ldr	r1, .L78+16
 828 0050 01A8     		add	r0, sp, #4
 829              	.LVL55:
 304:Src/main.c    ****                 HAL_UART_Transmit(&huart1, (uint8_t *)output_log, strlen(output_log), 1000);
 830              		.loc 1 304 17 is_stmt 0 view .LVU191
 831 0052 FFF7FEFF 		bl	sprintf
 832              	.LVL56:
ARM GAS  /tmp/ccy4tSof.s 			page 23


 305:Src/main.c    ****             } else {
 833              		.loc 1 305 17 is_stmt 1 view .LVU192
 305:Src/main.c    ****             } else {
 834              		.loc 1 305 67 is_stmt 0 view .LVU193
 835 0056 01A8     		add	r0, sp, #4
 836 0058 FFF7FEFF 		bl	strlen
 837              	.LVL57:
 305:Src/main.c    ****             } else {
 838              		.loc 1 305 17 view .LVU194
 839 005c 4FF47A73 		mov	r3, #1000
 840 0060 82B2     		uxth	r2, r0
 841 0062 01A9     		add	r1, sp, #4
 842 0064 7348     		ldr	r0, .L78+20
 843 0066 FFF7FEFF 		bl	HAL_UART_Transmit
 844              	.LVL58:
 845              	.LBE5:
 846 006a DAE7     		b	.L55
 847              	.LVL59:
 848              	.L54:
 849              	.LBB6:
 308:Src/main.c    ****                 HAL_UART_Transmit(&huart1, (uint8_t *)output_log, strlen(output_log), 1000);
 850              		.loc 1 308 17 is_stmt 1 view .LVU195
 308:Src/main.c    ****                 HAL_UART_Transmit(&huart1, (uint8_t *)output_log, strlen(output_log), 1000);
 851              		.loc 1 308 22 is_stmt 0 view .LVU196
 852 006c 01AC     		add	r4, sp, #4
 853 006e 724D     		ldr	r5, .L78+24
 854 0070 0FCD     		ldmia	r5!, {r0, r1, r2, r3}
 855              	.LVL60:
 308:Src/main.c    ****                 HAL_UART_Transmit(&huart1, (uint8_t *)output_log, strlen(output_log), 1000);
 856              		.loc 1 308 22 view .LVU197
 857 0072 0FC4     		stmia	r4!, {r0, r1, r2, r3}
 858 0074 0FCD     		ldmia	r5!, {r0, r1, r2, r3}
 859 0076 0FC4     		stmia	r4!, {r0, r1, r2, r3}
 860 0078 0FCD     		ldmia	r5!, {r0, r1, r2, r3}
 861 007a 0FC4     		stmia	r4!, {r0, r1, r2, r3}
 862 007c 2B68     		ldr	r3, [r5]
 863 007e 2380     		strh	r3, [r4]	@ movhi
 309:Src/main.c    ****                 return;
 864              		.loc 1 309 17 is_stmt 1 view .LVU198
 309:Src/main.c    ****                 return;
 865              		.loc 1 309 67 is_stmt 0 view .LVU199
 866 0080 01A8     		add	r0, sp, #4
 867 0082 FFF7FEFF 		bl	strlen
 868              	.LVL61:
 309:Src/main.c    ****                 return;
 869              		.loc 1 309 17 view .LVU200
 870 0086 4FF47A73 		mov	r3, #1000
 871 008a 82B2     		uxth	r2, r0
 872 008c 01A9     		add	r1, sp, #4
 873 008e 6948     		ldr	r0, .L78+20
 874 0090 FFF7FEFF 		bl	HAL_UART_Transmit
 875              	.LVL62:
 310:Src/main.c    ****             }
 876              		.loc 1 310 17 is_stmt 1 view .LVU201
 877 0094 CEE7     		b	.L50
 878              	.LVL63:
 879              	.L75:
ARM GAS  /tmp/ccy4tSof.s 			page 24


 310:Src/main.c    ****             }
 880              		.loc 1 310 17 is_stmt 0 view .LVU202
 881              	.LBE6:
 882              	.LBE4:
 315:Src/main.c    ****                 int commaCount = 0;
 883              		.loc 1 315 13 is_stmt 1 view .LVU203
 315:Src/main.c    ****                 int commaCount = 0;
 884              		.loc 1 315 17 is_stmt 0 view .LVU204
 885 0096 0622     		movs	r2, #6
 886 0098 6849     		ldr	r1, .L78+28
 887 009a 6248     		ldr	r0, .L78+4
 888              	.LVL64:
 315:Src/main.c    ****                 int commaCount = 0;
 889              		.loc 1 315 17 view .LVU205
 890 009c FFF7FEFF 		bl	strncmp
 891              	.LVL65:
 315:Src/main.c    ****                 int commaCount = 0;
 892              		.loc 1 315 16 view .LVU206
 893 00a0 0546     		mov	r5, r0
 894 00a2 0028     		cmp	r0, #0
 895 00a4 BDD1     		bne	.L55
 896              	.LBB7:
 897              	.LBB8:
 317:Src/main.c    ****                     if (buffer[i] == ',') commaCount++;
 898              		.loc 1 317 26 view .LVU207
 899 00a6 0346     		mov	r3, r0
 900              	.LBE8:
 316:Src/main.c    ****                 for (int i = 0; buffer[i]; i++) {
 901              		.loc 1 316 21 view .LVU208
 902 00a8 0146     		mov	r1, r0
 903 00aa 00E0     		b	.L57
 904              	.LVL66:
 905              	.L58:
 906              	.LBB9:
 317:Src/main.c    ****                     if (buffer[i] == ',') commaCount++;
 907              		.loc 1 317 44 is_stmt 1 discriminator 2 view .LVU209
 317:Src/main.c    ****                     if (buffer[i] == ',') commaCount++;
 908              		.loc 1 317 45 is_stmt 0 discriminator 2 view .LVU210
 909 00ac 0133     		adds	r3, r3, #1
 910              	.LVL67:
 911              	.L57:
 317:Src/main.c    ****                     if (buffer[i] == ',') commaCount++;
 912              		.loc 1 317 33 is_stmt 1 discriminator 1 view .LVU211
 317:Src/main.c    ****                     if (buffer[i] == ',') commaCount++;
 913              		.loc 1 317 39 is_stmt 0 discriminator 1 view .LVU212
 914 00ae 5D4A     		ldr	r2, .L78+4
 915 00b0 D25C     		ldrb	r2, [r2, r3]	@ zero_extendqisi2
 317:Src/main.c    ****                     if (buffer[i] == ',') commaCount++;
 916              		.loc 1 317 17 discriminator 1 view .LVU213
 917 00b2 1AB1     		cbz	r2, .L76
 318:Src/main.c    ****                 }
 918              		.loc 1 318 21 is_stmt 1 view .LVU214
 318:Src/main.c    ****                 }
 919              		.loc 1 318 24 is_stmt 0 view .LVU215
 920 00b4 2C2A     		cmp	r2, #44
 921 00b6 F9D1     		bne	.L58
 318:Src/main.c    ****                 }
ARM GAS  /tmp/ccy4tSof.s 			page 25


 922              		.loc 1 318 43 is_stmt 1 discriminator 1 view .LVU216
 318:Src/main.c    ****                 }
 923              		.loc 1 318 53 is_stmt 0 discriminator 1 view .LVU217
 924 00b8 0131     		adds	r1, r1, #1
 925              	.LVL68:
 318:Src/main.c    ****                 }
 926              		.loc 1 318 53 discriminator 1 view .LVU218
 927 00ba F7E7     		b	.L58
 928              	.L76:
 318:Src/main.c    ****                 }
 929              		.loc 1 318 53 discriminator 1 view .LVU219
 930              	.LBE9:
 321:Src/main.c    ****                     // 解析 GPRMC 数据
 931              		.loc 1 321 17 is_stmt 1 view .LVU220
 321:Src/main.c    ****                     // 解析 GPRMC 数据
 932              		.loc 1 321 20 is_stmt 0 view .LVU221
 933 00bc 0A29     		cmp	r1, #10
 934 00be 40F38D80 		ble	.L60
 935              	.LBB10:
 323:Src/main.c    ****                     int tokenIndex = 0;
 936              		.loc 1 323 21 is_stmt 1 view .LVU222
 323:Src/main.c    ****                     int tokenIndex = 0;
 937              		.loc 1 323 35 is_stmt 0 view .LVU223
 938 00c2 5F49     		ldr	r1, .L78+32
 939              	.LVL69:
 323:Src/main.c    ****                     int tokenIndex = 0;
 940              		.loc 1 323 35 view .LVU224
 941 00c4 5748     		ldr	r0, .L78+4
 942 00c6 FFF7FEFF 		bl	strtok
 943              	.LVL70:
 323:Src/main.c    ****                     int tokenIndex = 0;
 944              		.loc 1 323 35 view .LVU225
 945 00ca 0446     		mov	r4, r0
 946              	.LVL71:
 324:Src/main.c    ****                     while (token != NULL) {
 947              		.loc 1 324 21 is_stmt 1 view .LVU226
 325:Src/main.c    ****                         token = strtok(NULL, ",");
 948              		.loc 1 325 21 view .LVU227
 325:Src/main.c    ****                         token = strtok(NULL, ",");
 949              		.loc 1 325 27 is_stmt 0 view .LVU228
 950 00cc 2AE0     		b	.L61
 951              	.LVL72:
 952              	.L68:
 333:Src/main.c    ****                                 BASE_MINUTE = (atoi(token) % 10000) / 100;
 953              		.loc 1 333 33 is_stmt 1 view .LVU229
 333:Src/main.c    ****                                 BASE_MINUTE = (atoi(token) % 10000) / 100;
 954              		.loc 1 333 45 is_stmt 0 view .LVU230
 955 00ce FFF7FEFF 		bl	atoi
 956              	.LVL73:
 333:Src/main.c    ****                                 BASE_MINUTE = (atoi(token) % 10000) / 100;
 957              		.loc 1 333 57 view .LVU231
 958 00d2 5C4E     		ldr	r6, .L78+36
 959 00d4 86FB0023 		smull	r2, r3, r6, r0
 960 00d8 C017     		asrs	r0, r0, #31
 961 00da C0EB2330 		rsb	r0, r0, r3, asr #12
 333:Src/main.c    ****                                 BASE_MINUTE = (atoi(token) % 10000) / 100;
 962              		.loc 1 333 43 view .LVU232
ARM GAS  /tmp/ccy4tSof.s 			page 26


 963 00de 5A4B     		ldr	r3, .L78+40
 964 00e0 1860     		str	r0, [r3]
 334:Src/main.c    ****                                 BASE_SECOND = atoi(token) % 100;
 965              		.loc 1 334 33 is_stmt 1 view .LVU233
 334:Src/main.c    ****                                 BASE_SECOND = atoi(token) % 100;
 966              		.loc 1 334 48 is_stmt 0 view .LVU234
 967 00e2 2046     		mov	r0, r4
 968 00e4 FFF7FEFF 		bl	atoi
 969              	.LVL74:
 334:Src/main.c    ****                                 BASE_SECOND = atoi(token) % 100;
 970              		.loc 1 334 60 view .LVU235
 971 00e8 86FB0036 		smull	r3, r6, r6, r0
 972 00ec C317     		asrs	r3, r0, #31
 973 00ee C3EB2633 		rsb	r3, r3, r6, asr #12
 974 00f2 42F21072 		movw	r2, #10000
 975 00f6 02FB1303 		mls	r3, r2, r3, r0
 334:Src/main.c    ****                                 BASE_SECOND = atoi(token) % 100;
 976              		.loc 1 334 69 view .LVU236
 977 00fa 544E     		ldr	r6, .L78+44
 978 00fc 86FB0312 		smull	r1, r2, r6, r3
 979 0100 DB17     		asrs	r3, r3, #31
 980 0102 C3EB6213 		rsb	r3, r3, r2, asr #5
 334:Src/main.c    ****                                 BASE_SECOND = atoi(token) % 100;
 981              		.loc 1 334 45 view .LVU237
 982 0106 524A     		ldr	r2, .L78+48
 983 0108 1360     		str	r3, [r2]
 335:Src/main.c    ****                                 break;
 984              		.loc 1 335 33 is_stmt 1 view .LVU238
 335:Src/main.c    ****                                 break;
 985              		.loc 1 335 47 is_stmt 0 view .LVU239
 986 010a 2046     		mov	r0, r4
 987 010c FFF7FEFF 		bl	atoi
 988              	.LVL75:
 335:Src/main.c    ****                                 break;
 989              		.loc 1 335 59 view .LVU240
 990 0110 86FB0036 		smull	r3, r6, r6, r0
 991 0114 C317     		asrs	r3, r0, #31
 992 0116 C3EB6613 		rsb	r3, r3, r6, asr #5
 993 011a 6422     		movs	r2, #100
 994 011c 02FB1303 		mls	r3, r2, r3, r0
 335:Src/main.c    ****                                 break;
 995              		.loc 1 335 45 view .LVU241
 996 0120 4C4A     		ldr	r2, .L78+52
 997 0122 1360     		str	r3, [r2]
 336:Src/main.c    ****                             case 3: // 纬度
 998              		.loc 1 336 33 is_stmt 1 view .LVU242
 999              	.LVL76:
 1000              	.L61:
 325:Src/main.c    ****                         token = strtok(NULL, ",");
 1001              		.loc 1 325 27 view .LVU243
 1002 0124 002C     		cmp	r4, #0
 1003 0126 51D0     		beq	.L77
 326:Src/main.c    ****                         tokenIndex++;
 1004              		.loc 1 326 25 view .LVU244
 326:Src/main.c    ****                         tokenIndex++;
 1005              		.loc 1 326 33 is_stmt 0 view .LVU245
 1006 0128 4549     		ldr	r1, .L78+32
ARM GAS  /tmp/ccy4tSof.s 			page 27


 1007 012a 0020     		movs	r0, #0
 1008 012c FFF7FEFF 		bl	strtok
 1009              	.LVL77:
 1010 0130 0446     		mov	r4, r0
 1011              	.LVL78:
 327:Src/main.c    **** 
 1012              		.loc 1 327 25 is_stmt 1 view .LVU246
 327:Src/main.c    **** 
 1013              		.loc 1 327 35 is_stmt 0 view .LVU247
 1014 0132 0135     		adds	r5, r5, #1
 1015              	.LVL79:
 331:Src/main.c    ****                             case 1: // 时间
 1016              		.loc 1 331 25 is_stmt 1 view .LVU248
 1017 0134 6B1E     		subs	r3, r5, #1
 1018 0136 052B     		cmp	r3, #5
 1019 0138 F4D8     		bhi	.L61
 1020 013a 01A2     		adr	r2, .L64
 1021 013c 52F823F0 		ldr	pc, [r2, r3, lsl #2]
 1022              		.p2align 2
 1023              	.L64:
 1024 0140 CF000000 		.word	.L68+1
 1025 0144 25010000 		.word	.L61+1
 1026 0148 59010000 		.word	.L67+1
 1027 014c 6B010000 		.word	.L66+1
 1028 0150 93010000 		.word	.L65+1
 1029 0154 A5010000 		.word	.L63+1
 1030              		.p2align 1
 1031              	.L67:
 338:Src/main.c    ****                                 LATITUDE[sizeof(LATITUDE) - 1] = '\0';  // 确保字符串以null
 1032              		.loc 1 338 33 view .LVU249
 1033 0158 3F4E     		ldr	r6, .L78+56
 1034 015a 1322     		movs	r2, #19
 1035 015c 0146     		mov	r1, r0
 1036 015e 3046     		mov	r0, r6
 1037              	.LVL80:
 338:Src/main.c    ****                                 LATITUDE[sizeof(LATITUDE) - 1] = '\0';  // 确保字符串以null
 1038              		.loc 1 338 33 is_stmt 0 view .LVU250
 1039 0160 FFF7FEFF 		bl	strncpy
 1040              	.LVL81:
 339:Src/main.c    ****                                 break;
 1041              		.loc 1 339 33 is_stmt 1 view .LVU251
 339:Src/main.c    ****                                 break;
 1042              		.loc 1 339 64 is_stmt 0 view .LVU252
 1043 0164 0023     		movs	r3, #0
 1044 0166 F374     		strb	r3, [r6, #19]
 340:Src/main.c    ****                             case 4: // 纬度方向
 1045              		.loc 1 340 33 is_stmt 1 view .LVU253
 1046 0168 DCE7     		b	.L61
 1047              	.LVL82:
 1048              	.L66:
 342:Src/main.c    ****                                     strncat(LATITUDE, ",", 1);  // 首先添加逗号
 1049              		.loc 1 342 33 view .LVU254
 342:Src/main.c    ****                                     strncat(LATITUDE, ",", 1);  // 首先添加逗号
 1050              		.loc 1 342 37 is_stmt 0 view .LVU255
 1051 016a 3B48     		ldr	r0, .L78+56
 1052              	.LVL83:
 342:Src/main.c    ****                                     strncat(LATITUDE, ",", 1);  // 首先添加逗号
ARM GAS  /tmp/ccy4tSof.s 			page 28


 1053              		.loc 1 342 37 view .LVU256
 1054 016c FFF7FEFF 		bl	strlen
 1055              	.LVL84:
 342:Src/main.c    ****                                     strncat(LATITUDE, ",", 1);  // 首先添加逗号
 1056              		.loc 1 342 54 view .LVU257
 1057 0170 831C     		adds	r3, r0, #2
 342:Src/main.c    ****                                     strncat(LATITUDE, ",", 1);  // 首先添加逗号
 1058              		.loc 1 342 36 view .LVU258
 1059 0172 132B     		cmp	r3, #19
 1060 0174 D6D8     		bhi	.L61
 343:Src/main.c    ****                                     strncat(LATITUDE, token, sizeof(LATITUDE) - strlen(LATITUDE) - 
 1061              		.loc 1 343 37 is_stmt 1 view .LVU259
 1062 0176 384E     		ldr	r6, .L78+56
 1063 0178 314B     		ldr	r3, .L78+32
 1064 017a 1B88     		ldrh	r3, [r3]	@ unaligned
 1065 017c 3352     		strh	r3, [r6, r0]	@ unaligned
 344:Src/main.c    ****                                 }
 1066              		.loc 1 344 37 view .LVU260
 344:Src/main.c    ****                                 }
 1067              		.loc 1 344 81 is_stmt 0 view .LVU261
 1068 017e 3046     		mov	r0, r6
 1069 0180 FFF7FEFF 		bl	strlen
 1070              	.LVL85:
 344:Src/main.c    ****                                 }
 1071              		.loc 1 344 37 view .LVU262
 1072 0184 C0F11302 		rsb	r2, r0, #19
 1073 0188 2146     		mov	r1, r4
 1074 018a 3046     		mov	r0, r6
 1075 018c FFF7FEFF 		bl	strncat
 1076              	.LVL86:
 1077 0190 C8E7     		b	.L61
 1078              	.LVL87:
 1079              	.L65:
 348:Src/main.c    ****                                 LONGITUDE[sizeof(LONGITUDE) - 1] = '\0';  // 确保字符串以null
 1080              		.loc 1 348 33 is_stmt 1 view .LVU263
 1081 0192 324E     		ldr	r6, .L78+60
 1082 0194 1322     		movs	r2, #19
 1083 0196 0146     		mov	r1, r0
 1084 0198 3046     		mov	r0, r6
 1085              	.LVL88:
 348:Src/main.c    ****                                 LONGITUDE[sizeof(LONGITUDE) - 1] = '\0';  // 确保字符串以null
 1086              		.loc 1 348 33 is_stmt 0 view .LVU264
 1087 019a FFF7FEFF 		bl	strncpy
 1088              	.LVL89:
 349:Src/main.c    ****                                 break;
 1089              		.loc 1 349 33 is_stmt 1 view .LVU265
 349:Src/main.c    ****                                 break;
 1090              		.loc 1 349 66 is_stmt 0 view .LVU266
 1091 019e 0023     		movs	r3, #0
 1092 01a0 F374     		strb	r3, [r6, #19]
 350:Src/main.c    ****                             case 6: // 经度方向
 1093              		.loc 1 350 33 is_stmt 1 view .LVU267
 1094 01a2 BFE7     		b	.L61
 1095              	.LVL90:
 1096              	.L63:
 352:Src/main.c    ****                                     strncat(LONGITUDE, ",", 1);  // 首先添加逗号
 1097              		.loc 1 352 33 view .LVU268
ARM GAS  /tmp/ccy4tSof.s 			page 29


 352:Src/main.c    ****                                     strncat(LONGITUDE, ",", 1);  // 首先添加逗号
 1098              		.loc 1 352 37 is_stmt 0 view .LVU269
 1099 01a4 2D48     		ldr	r0, .L78+60
 1100              	.LVL91:
 352:Src/main.c    ****                                     strncat(LONGITUDE, ",", 1);  // 首先添加逗号
 1101              		.loc 1 352 37 view .LVU270
 1102 01a6 FFF7FEFF 		bl	strlen
 1103              	.LVL92:
 352:Src/main.c    ****                                     strncat(LONGITUDE, ",", 1);  // 首先添加逗号
 1104              		.loc 1 352 55 view .LVU271
 1105 01aa 831C     		adds	r3, r0, #2
 352:Src/main.c    ****                                     strncat(LONGITUDE, ",", 1);  // 首先添加逗号
 1106              		.loc 1 352 36 view .LVU272
 1107 01ac 132B     		cmp	r3, #19
 1108 01ae B9D8     		bhi	.L61
 353:Src/main.c    ****                                     strncat(LONGITUDE, token, sizeof(LONGITUDE) - strlen(LONGITUDE)
 1109              		.loc 1 353 37 is_stmt 1 view .LVU273
 1110 01b0 2A4E     		ldr	r6, .L78+60
 1111 01b2 234B     		ldr	r3, .L78+32
 1112 01b4 1B88     		ldrh	r3, [r3]	@ unaligned
 1113 01b6 3352     		strh	r3, [r6, r0]	@ unaligned
 354:Src/main.c    ****                                 }
 1114              		.loc 1 354 37 view .LVU274
 354:Src/main.c    ****                                 }
 1115              		.loc 1 354 83 is_stmt 0 view .LVU275
 1116 01b8 3046     		mov	r0, r6
 1117 01ba FFF7FEFF 		bl	strlen
 1118              	.LVL93:
 354:Src/main.c    ****                                 }
 1119              		.loc 1 354 37 view .LVU276
 1120 01be C0F11302 		rsb	r2, r0, #19
 1121 01c2 2146     		mov	r1, r4
 1122 01c4 3046     		mov	r0, r6
 1123 01c6 FFF7FEFF 		bl	strncat
 1124              	.LVL94:
 1125 01ca ABE7     		b	.L61
 1126              	.L77:
 359:Src/main.c    **** 
 1127              		.loc 1 359 21 is_stmt 1 view .LVU277
 359:Src/main.c    **** 
 1128              		.loc 1 359 40 is_stmt 0 view .LVU278
 1129 01cc 244B     		ldr	r3, .L78+64
 1130 01ce 1C68     		ldr	r4, [r3]
 1131              	.LVL95:
 359:Src/main.c    **** 
 1132              		.loc 1 359 42 view .LVU279
 1133 01d0 FFF7FEFF 		bl	HAL_GetTick
 1134              	.LVL96:
 359:Src/main.c    **** 
 1135              		.loc 1 359 40 view .LVU280
 1136 01d4 241A     		subs	r4, r4, r0
 359:Src/main.c    **** 
 1137              		.loc 1 359 29 view .LVU281
 1138 01d6 234B     		ldr	r3, .L78+68
 1139 01d8 1C60     		str	r4, [r3]
 1140              	.LBE10:
 1141 01da 22E7     		b	.L55
ARM GAS  /tmp/ccy4tSof.s 			page 30


 1142              	.LVL97:
 1143              	.L60:
 1144              	.LBB11:
 362:Src/main.c    ****                     HAL_UART_Transmit(&huart1, (uint8_t *)output_log, strlen(output_log), 1000);
 1145              		.loc 1 362 21 is_stmt 1 view .LVU282
 362:Src/main.c    ****                     HAL_UART_Transmit(&huart1, (uint8_t *)output_log, strlen(output_log), 1000);
 1146              		.loc 1 362 26 is_stmt 0 view .LVU283
 1147 01dc 01AC     		add	r4, sp, #4
 1148 01de 224D     		ldr	r5, .L78+72
 1149 01e0 0FCD     		ldmia	r5!, {r0, r1, r2, r3}
 1150              	.LVL98:
 362:Src/main.c    ****                     HAL_UART_Transmit(&huart1, (uint8_t *)output_log, strlen(output_log), 1000);
 1151              		.loc 1 362 26 view .LVU284
 1152 01e2 0FC4     		stmia	r4!, {r0, r1, r2, r3}
 1153 01e4 0FCD     		ldmia	r5!, {r0, r1, r2, r3}
 1154 01e6 0FC4     		stmia	r4!, {r0, r1, r2, r3}
 1155 01e8 95E80700 		ldm	r5, {r0, r1, r2}
 1156 01ec 84E80700 		stm	r4, {r0, r1, r2}
 363:Src/main.c    ****                     return;
 1157              		.loc 1 363 21 is_stmt 1 view .LVU285
 363:Src/main.c    ****                     return;
 1158              		.loc 1 363 71 is_stmt 0 view .LVU286
 1159 01f0 01A8     		add	r0, sp, #4
 1160 01f2 FFF7FEFF 		bl	strlen
 1161              	.LVL99:
 363:Src/main.c    ****                     return;
 1162              		.loc 1 363 21 view .LVU287
 1163 01f6 4FF47A73 		mov	r3, #1000
 1164 01fa 82B2     		uxth	r2, r0
 1165 01fc 01A9     		add	r1, sp, #4
 1166 01fe 0D48     		ldr	r0, .L78+20
 1167 0200 FFF7FEFF 		bl	HAL_UART_Transmit
 1168              	.LVL100:
 364:Src/main.c    ****                 }
 1169              		.loc 1 364 21 is_stmt 1 view .LVU288
 1170 0204 16E7     		b	.L50
 1171              	.LVL101:
 1172              	.L52:
 1173              	.LCFI10:
 1174              		.cfi_def_cfa_offset 0
 1175              		.cfi_restore 4
 1176              		.cfi_restore 5
 1177              		.cfi_restore 6
 1178              		.cfi_restore 14
 364:Src/main.c    ****                 }
 1179              		.loc 1 364 21 is_stmt 0 view .LVU289
 1180              	.LBE11:
 1181              	.LBE7:
 374:Src/main.c    ****             buffer[index++] = data;
 1182              		.loc 1 374 9 is_stmt 1 view .LVU290
 374:Src/main.c    ****             buffer[index++] = data;
 1183              		.loc 1 374 19 is_stmt 0 view .LVU291
 1184 0206 064B     		ldr	r3, .L78
 1185 0208 1B68     		ldr	r3, [r3]
 374:Src/main.c    ****             buffer[index++] = data;
 1186              		.loc 1 374 12 view .LVU292
 1187 020a 40F2FE32 		movw	r2, #1022
ARM GAS  /tmp/ccy4tSof.s 			page 31


 1188 020e 9342     		cmp	r3, r2
 1189 0210 05D8     		bhi	.L72
 375:Src/main.c    ****         }
 1190              		.loc 1 375 13 is_stmt 1 view .LVU293
 375:Src/main.c    ****         }
 1191              		.loc 1 375 25 is_stmt 0 view .LVU294
 1192 0212 591C     		adds	r1, r3, #1
 1193 0214 024A     		ldr	r2, .L78
 1194 0216 1160     		str	r1, [r2]
 375:Src/main.c    ****         }
 1195              		.loc 1 375 29 view .LVU295
 1196 0218 024A     		ldr	r2, .L78+4
 1197 021a D054     		strb	r0, [r2, r3]
 1198 021c 7047     		bx	lr
 1199              	.L72:
 375:Src/main.c    ****         }
 1200              		.loc 1 375 29 view .LVU296
 1201 021e 7047     		bx	lr
 1202              	.L79:
 1203              		.align	2
 1204              	.L78:
 1205 0220 00000000 		.word	.LANCHOR16
 1206 0224 00000000 		.word	.LANCHOR17
 1207 0228 01000000 		.word	.LANCHOR17+1
 1208 022c 00000000 		.word	.LANCHOR18
 1209 0230 00000000 		.word	.LC2
 1210 0234 00000000 		.word	huart1
 1211 0238 24000000 		.word	.LC3
 1212 023c 18000000 		.word	.LC4
 1213 0240 20000000 		.word	.LC5
 1214 0244 AD8BDB68 		.word	1759218605
 1215 0248 00000000 		.word	.LANCHOR0
 1216 024c 1F85EB51 		.word	1374389535
 1217 0250 00000000 		.word	.LANCHOR1
 1218 0254 00000000 		.word	.LANCHOR2
 1219 0258 00000000 		.word	.LANCHOR8
 1220 025c 00000000 		.word	.LANCHOR7
 1221 0260 00000000 		.word	.LANCHOR19
 1222 0264 00000000 		.word	.LANCHOR3
 1223 0268 58000000 		.word	.LC6
 1224              		.cfi_endproc
 1225              	.LFE77:
 1227              		.section	.text.HAL_UART_RxCpltCallback,"ax",%progbits
 1228              		.align	1
 1229              		.global	HAL_UART_RxCpltCallback
 1230              		.syntax unified
 1231              		.thumb
 1232              		.thumb_func
 1233              		.fpu softvfp
 1235              	HAL_UART_RxCpltCallback:
 1236              	.LVL102:
 1237              	.LFB78:
 379:Src/main.c    **** void HAL_UART_RxCpltCallback(UART_HandleTypeDef *huart)
 380:Src/main.c    **** {
 1238              		.loc 1 380 1 is_stmt 1 view -0
 1239              		.cfi_startproc
 1240              		@ args = 0, pretend = 0, frame = 0
ARM GAS  /tmp/ccy4tSof.s 			page 32


 1241              		@ frame_needed = 0, uses_anonymous_args = 0
 1242              		.loc 1 380 1 is_stmt 0 view .LVU298
 1243 0000 38B5     		push	{r3, r4, r5, lr}
 1244              	.LCFI11:
 1245              		.cfi_def_cfa_offset 16
 1246              		.cfi_offset 3, -16
 1247              		.cfi_offset 4, -12
 1248              		.cfi_offset 5, -8
 1249              		.cfi_offset 14, -4
 381:Src/main.c    ****     if (huart->Instance == USART1) 
 1250              		.loc 1 381 5 is_stmt 1 view .LVU299
 1251              		.loc 1 381 14 is_stmt 0 view .LVU300
 1252 0002 0268     		ldr	r2, [r0]
 1253              		.loc 1 381 8 view .LVU301
 1254 0004 074B     		ldr	r3, .L84
 1255 0006 9A42     		cmp	r2, r3
 1256 0008 00D0     		beq	.L83
 1257              	.LVL103:
 1258              	.L80:
 382:Src/main.c    ****     {
 383:Src/main.c    ****         ProcessReceivedData(uart_rx_buffer); 
 384:Src/main.c    ****         HAL_UART_Receive_IT(huart, &uart_rx_buffer, 1);
 385:Src/main.c    ****     }
 386:Src/main.c    **** }
 1259              		.loc 1 386 1 view .LVU302
 1260 000a 38BD     		pop	{r3, r4, r5, pc}
 1261              	.LVL104:
 1262              	.L83:
 1263              		.loc 1 386 1 view .LVU303
 1264 000c 0446     		mov	r4, r0
 383:Src/main.c    ****         HAL_UART_Receive_IT(huart, &uart_rx_buffer, 1);
 1265              		.loc 1 383 9 is_stmt 1 view .LVU304
 1266 000e 064D     		ldr	r5, .L84+4
 1267 0010 2878     		ldrb	r0, [r5]	@ zero_extendqisi2
 1268              	.LVL105:
 383:Src/main.c    ****         HAL_UART_Receive_IT(huart, &uart_rx_buffer, 1);
 1269              		.loc 1 383 9 is_stmt 0 view .LVU305
 1270 0012 FFF7FEFF 		bl	ProcessReceivedData
 1271              	.LVL106:
 384:Src/main.c    ****     }
 1272              		.loc 1 384 9 is_stmt 1 view .LVU306
 1273 0016 0122     		movs	r2, #1
 1274 0018 2946     		mov	r1, r5
 1275 001a 2046     		mov	r0, r4
 1276 001c FFF7FEFF 		bl	HAL_UART_Receive_IT
 1277              	.LVL107:
 1278              		.loc 1 386 1 is_stmt 0 view .LVU307
 1279 0020 F3E7     		b	.L80
 1280              	.L85:
 1281 0022 00BF     		.align	2
 1282              	.L84:
 1283 0024 00380140 		.word	1073821696
 1284 0028 00000000 		.word	uart_rx_buffer
 1285              		.cfi_endproc
 1286              	.LFE78:
 1288              		.section	.text.Error_Handler,"ax",%progbits
 1289              		.align	1
ARM GAS  /tmp/ccy4tSof.s 			page 33


 1290              		.global	Error_Handler
 1291              		.syntax unified
 1292              		.thumb
 1293              		.thumb_func
 1294              		.fpu softvfp
 1296              	Error_Handler:
 1297              	.LFB81:
 387:Src/main.c    **** 
 388:Src/main.c    **** 
 389:Src/main.c    **** 
 390:Src/main.c    **** 
 391:Src/main.c    **** /* USER CODE END 0 */
 392:Src/main.c    **** 
 393:Src/main.c    **** /**
 394:Src/main.c    ****   * @brief  The application entry point.
 395:Src/main.c    ****   * @retval int
 396:Src/main.c    ****   */
 397:Src/main.c    **** int main(void)
 398:Src/main.c    **** {
 399:Src/main.c    **** 
 400:Src/main.c    ****   /* USER CODE BEGIN 1 */
 401:Src/main.c    **** 
 402:Src/main.c    ****   /* USER CODE END 1 */
 403:Src/main.c    **** 
 404:Src/main.c    ****   /* MCU Configuration--------------------------------------------------------*/
 405:Src/main.c    **** 
 406:Src/main.c    ****   /* Reset of all peripherals, Initializes the Flash interface and the Systick. */
 407:Src/main.c    ****   HAL_Init();
 408:Src/main.c    **** 
 409:Src/main.c    ****   /* USER CODE BEGIN Init */
 410:Src/main.c    **** 
 411:Src/main.c    ****   /* USER CODE END Init */
 412:Src/main.c    **** 
 413:Src/main.c    ****   /* Configure the system clock */
 414:Src/main.c    ****   SystemClock_Config();
 415:Src/main.c    **** 
 416:Src/main.c    ****   /* USER CODE BEGIN SysInit */
 417:Src/main.c    ****   DWT_Init();
 418:Src/main.c    ****   /* USER CODE END SysInit */
 419:Src/main.c    **** 
 420:Src/main.c    ****   /* Initialize all configured peripherals */
 421:Src/main.c    ****   MX_GPIO_Init();
 422:Src/main.c    ****   MX_DMA_Init();
 423:Src/main.c    ****   MX_TIM2_Init();
 424:Src/main.c    ****   MX_USART1_UART_Init();
 425:Src/main.c    ****   MX_USART3_UART_Init();
 426:Src/main.c    ****   MX_TIM3_Init();
 427:Src/main.c    ****   MX_TIM4_Init();
 428:Src/main.c    ****   /* USER CODE BEGIN 2 */
 429:Src/main.c    ****   
 430:Src/main.c    **** 
 431:Src/main.c    **** 
 432:Src/main.c    ****   if (HAL_TIM_Base_Start_IT(&htim3) != HAL_OK) {
 433:Src/main.c    ****     Error_Handler();
 434:Src/main.c    ****   }
 435:Src/main.c    ****   HAL_NVIC_SetPriority(TIM3_IRQn, 1, 1);
 436:Src/main.c    ****   HAL_NVIC_EnableIRQ(TIM3_IRQn);
ARM GAS  /tmp/ccy4tSof.s 			page 34


 437:Src/main.c    **** 
 438:Src/main.c    ****   if (HAL_TIM_Base_Start_IT(&htim4) != HAL_OK) {
 439:Src/main.c    ****     Error_Handler();
 440:Src/main.c    ****   }
 441:Src/main.c    ****   HAL_NVIC_SetPriority(TIM4_IRQn, 0, 0);
 442:Src/main.c    ****   HAL_NVIC_EnableIRQ(TIM4_IRQn);
 443:Src/main.c    ****   baseTick = HAL_GetTick();
 444:Src/main.c    **** 
 445:Src/main.c    ****   if (HAL_TIM_Base_Start_IT(&htim2) != HAL_OK) {
 446:Src/main.c    ****     Error_Handler();  
 447:Src/main.c    ****   }
 448:Src/main.c    ****   HAL_NVIC_SetPriority(TIM2_IRQn, 2, 2);
 449:Src/main.c    ****   HAL_NVIC_EnableIRQ(TIM2_IRQn);
 450:Src/main.c    **** 
 451:Src/main.c    ****   // if (HAL_TIM_Base_Start_IT(&htim5) != HAL_OK) {
 452:Src/main.c    ****   //   Error_Handler();
 453:Src/main.c    ****   // }
 454:Src/main.c    ****   // HAL_NVIC_SetPriority(TIM5_IRQn, 0, 1);
 455:Src/main.c    ****   //   HAL_NVIC_EnableIRQ(TIM5_IRQn);
 456:Src/main.c    ****   
 457:Src/main.c    **** 
 458:Src/main.c    ****   if (HAL_UART_Receive_IT(&huart1, &uart_rx_buffer, 1) != HAL_OK) {
 459:Src/main.c    ****       Error_Handler(); 
 460:Src/main.c    ****   }
 461:Src/main.c    **** 
 462:Src/main.c    **** 
 463:Src/main.c    ****   while (1) {
 464:Src/main.c    **** 
 465:Src/main.c    ****       while(enable_synchrone) {
 466:Src/main.c    **** 
 467:Src/main.c    ****           if (trigger_led_flag && trigger_led_count >= 5)
 468:Src/main.c    ****           {
 469:Src/main.c    ****               trigger_led_flag = 0;
 470:Src/main.c    ****               trigger_led_count = 0;
 471:Src/main.c    ****               HAL_GPIO_WritePin(GPIOB, GPIO_PIN_2, GPIO_PIN_SET); // Trigger LED OFF
 472:Src/main.c    ****           }
 473:Src/main.c    ****           
 474:Src/main.c    ****           if (!gprmc_led_flag && gprmc_led_count >= 5)
 475:Src/main.c    ****           {
 476:Src/main.c    ****               gprmc_led_count = 0;
 477:Src/main.c    ****               HAL_GPIO_WritePin(GPIOC, GPIO_PIN_5, GPIO_PIN_SET); // LED GPRMC Sending OFF
 478:Src/main.c    ****           }
 479:Src/main.c    ****         
 480:Src/main.c    **** 
 481:Src/main.c    ****           if (trigger_flag) {
 482:Src/main.c    **** 
 483:Src/main.c    ****               trigger_flag = 0;
 484:Src/main.c    **** 
 485:Src/main.c    ****               // 点亮PB2表示触发信号已发送
 486:Src/main.c    ****               HAL_GPIO_WritePin(GPIOB, GPIO_PIN_2, GPIO_PIN_RESET); // Trigger LED
 487:Src/main.c    ****               trigger_led_flag = 1;
 488:Src/main.c    **** 
 489:Src/main.c    ****               HAL_GPIO_TogglePin(GPIOC, GPIO_PIN_4); // Toggle Trigger signal
 490:Src/main.c    ****               
 491:Src/main.c    ****           }
 492:Src/main.c    **** 
 493:Src/main.c    ****           if (send_gps_flag) {
ARM GAS  /tmp/ccy4tSof.s 			page 35


 494:Src/main.c    **** 
 495:Src/main.c    **** 
 496:Src/main.c    ****               send_gps_flag = 0;
 497:Src/main.c    **** 
 498:Src/main.c    ****               HAL_GPIO_WritePin(GPIOC, GPIO_PIN_5, GPIO_PIN_RESET); // LED GPRMC Sending ON
 499:Src/main.c    ****               gprmc_led_flag = 1;
 500:Src/main.c    **** 
 501:Src/main.c    ****               GPRMC_Generator(baseTime);
 502:Src/main.c    ****               HAL_UART_Transmit(&huart1, (uint8_t *)gprmc_data, strlen(gprmc_data), 6);
 503:Src/main.c    ****               // HAL_UART_Transmit_DMA(&huart1, (uint8_t *)gprmc_data, strlen(gprmc_data));
 504:Src/main.c    ****               // HAL_UART_Transmit(&huart3, (uint8_t *)gprmc_data, strlen(gprmc_data), 70);
 505:Src/main.c    ****               HAL_UART_Transmit_DMA(&huart3, (uint8_t *)gprmc_data, strlen(gprmc_data));
 506:Src/main.c    ****               
 507:Src/main.c    ****               
 508:Src/main.c    ****               
 509:Src/main.c    ****           }
 510:Src/main.c    ****       }
 511:Src/main.c    ****   }
 512:Src/main.c    **** 
 513:Src/main.c    ****   /* USER CODE END 2 */
 514:Src/main.c    **** 
 515:Src/main.c    ****   /* Infinite loop */
 516:Src/main.c    ****   /* USER CODE BEGIN WHILE */
 517:Src/main.c    ****   while (1)
 518:Src/main.c    ****   {
 519:Src/main.c    ****     /* USER CODE END WHILE */
 520:Src/main.c    **** 
 521:Src/main.c    ****     /* USER CODE BEGIN 3 */
 522:Src/main.c    ****   }
 523:Src/main.c    ****   /* USER CODE END 3 */
 524:Src/main.c    **** }
 525:Src/main.c    **** 
 526:Src/main.c    **** /**
 527:Src/main.c    ****   * @brief System Clock Configuration
 528:Src/main.c    ****   * @retval None
 529:Src/main.c    ****   */
 530:Src/main.c    **** void SystemClock_Config(void)
 531:Src/main.c    **** {
 532:Src/main.c    ****   RCC_OscInitTypeDef RCC_OscInitStruct = {0};
 533:Src/main.c    ****   RCC_ClkInitTypeDef RCC_ClkInitStruct = {0};
 534:Src/main.c    **** 
 535:Src/main.c    ****   /** Initializes the RCC Oscillators according to the specified parameters
 536:Src/main.c    ****   * in the RCC_OscInitTypeDef structure.
 537:Src/main.c    ****   */
 538:Src/main.c    ****   RCC_OscInitStruct.OscillatorType = RCC_OSCILLATORTYPE_HSE;
 539:Src/main.c    ****   RCC_OscInitStruct.HSEState = RCC_HSE_ON;
 540:Src/main.c    ****   RCC_OscInitStruct.HSEPredivValue = RCC_HSE_PREDIV_DIV1;
 541:Src/main.c    ****   RCC_OscInitStruct.HSIState = RCC_HSI_ON;
 542:Src/main.c    ****   RCC_OscInitStruct.PLL.PLLState = RCC_PLL_ON;
 543:Src/main.c    ****   RCC_OscInitStruct.PLL.PLLSource = RCC_PLLSOURCE_HSE;
 544:Src/main.c    ****   RCC_OscInitStruct.PLL.PLLMUL = RCC_PLL_MUL9;
 545:Src/main.c    ****   if (HAL_RCC_OscConfig(&RCC_OscInitStruct) != HAL_OK)
 546:Src/main.c    ****   {
 547:Src/main.c    ****     Error_Handler();
 548:Src/main.c    ****   }
 549:Src/main.c    **** 
 550:Src/main.c    ****   /** Initializes the CPU, AHB and APB buses clocks
ARM GAS  /tmp/ccy4tSof.s 			page 36


 551:Src/main.c    ****   */
 552:Src/main.c    ****   RCC_ClkInitStruct.ClockType = RCC_CLOCKTYPE_HCLK|RCC_CLOCKTYPE_SYSCLK
 553:Src/main.c    ****                               |RCC_CLOCKTYPE_PCLK1|RCC_CLOCKTYPE_PCLK2;
 554:Src/main.c    ****   RCC_ClkInitStruct.SYSCLKSource = RCC_SYSCLKSOURCE_PLLCLK;
 555:Src/main.c    ****   RCC_ClkInitStruct.AHBCLKDivider = RCC_SYSCLK_DIV1;
 556:Src/main.c    ****   RCC_ClkInitStruct.APB1CLKDivider = RCC_HCLK_DIV2;
 557:Src/main.c    ****   RCC_ClkInitStruct.APB2CLKDivider = RCC_HCLK_DIV1;
 558:Src/main.c    **** 
 559:Src/main.c    ****   if (HAL_RCC_ClockConfig(&RCC_ClkInitStruct, FLASH_LATENCY_2) != HAL_OK)
 560:Src/main.c    ****   {
 561:Src/main.c    ****     Error_Handler();
 562:Src/main.c    ****   }
 563:Src/main.c    **** }
 564:Src/main.c    **** 
 565:Src/main.c    **** /* USER CODE BEGIN 4 */
 566:Src/main.c    **** 
 567:Src/main.c    **** /* USER CODE END 4 */
 568:Src/main.c    **** 
 569:Src/main.c    **** /**
 570:Src/main.c    ****   * @brief  This function is executed in case of error occurrence.
 571:Src/main.c    ****   * @retval None
 572:Src/main.c    ****   */
 573:Src/main.c    **** void Error_Handler(void)
 574:Src/main.c    **** {
 1298              		.loc 1 574 1 is_stmt 1 view -0
 1299              		.cfi_startproc
 1300              		@ Volatile: function does not return.
 1301              		@ args = 0, pretend = 0, frame = 0
 1302              		@ frame_needed = 0, uses_anonymous_args = 0
 1303 0000 08B5     		push	{r3, lr}
 1304              	.LCFI12:
 1305              		.cfi_def_cfa_offset 8
 1306              		.cfi_offset 3, -8
 1307              		.cfi_offset 14, -4
 575:Src/main.c    ****   /* USER CODE BEGIN Error_Handler_Debug */
 576:Src/main.c    ****   Error_Handler_Custom();
 1308              		.loc 1 576 3 view .LVU309
 1309 0002 FFF7FEFF 		bl	Error_Handler_Custom
 1310              	.LVL108:
 1311              		.cfi_endproc
 1312              	.LFE81:
 1314              		.section	.text.TIM4_IRQHandler,"ax",%progbits
 1315              		.align	1
 1316              		.global	TIM4_IRQHandler
 1317              		.syntax unified
 1318              		.thumb
 1319              		.thumb_func
 1320              		.fpu softvfp
 1322              	TIM4_IRQHandler:
 1323              	.LFB75:
 250:Src/main.c    ****     if (__HAL_TIM_GET_FLAG(&htim4, TIM_FLAG_UPDATE) != RESET) {
 1324              		.loc 1 250 28 view -0
 1325              		.cfi_startproc
 1326              		@ args = 0, pretend = 0, frame = 0
 1327              		@ frame_needed = 0, uses_anonymous_args = 0
 1328 0000 08B5     		push	{r3, lr}
 1329              	.LCFI13:
ARM GAS  /tmp/ccy4tSof.s 			page 37


 1330              		.cfi_def_cfa_offset 8
 1331              		.cfi_offset 3, -8
 1332              		.cfi_offset 14, -4
 251:Src/main.c    ****         __HAL_TIM_CLEAR_IT(&htim4, TIM_IT_UPDATE);
 1333              		.loc 1 251 5 view .LVU311
 251:Src/main.c    ****         __HAL_TIM_CLEAR_IT(&htim4, TIM_IT_UPDATE);
 1334              		.loc 1 251 9 is_stmt 0 view .LVU312
 1335 0002 1E4B     		ldr	r3, .L96
 1336 0004 1B68     		ldr	r3, [r3]
 1337 0006 1A69     		ldr	r2, [r3, #16]
 251:Src/main.c    ****         __HAL_TIM_CLEAR_IT(&htim4, TIM_IT_UPDATE);
 1338              		.loc 1 251 8 view .LVU313
 1339 0008 12F0010F 		tst	r2, #1
 1340 000c 35D0     		beq	.L88
 1341              	.LBB12:
 252:Src/main.c    ****         
 1342              		.loc 1 252 9 is_stmt 1 view .LVU314
 1343 000e 6FF00102 		mvn	r2, #1
 1344 0012 1A61     		str	r2, [r3, #16]
 254:Src/main.c    ****         
 1345              		.loc 1 254 9 view .LVU315
 256:Src/main.c    ****             count_10hz = 0;
 1346              		.loc 1 256 9 view .LVU316
 256:Src/main.c    ****             count_10hz = 0;
 1347              		.loc 1 256 13 is_stmt 0 view .LVU317
 1348 0014 1A4A     		ldr	r2, .L96+4
 1349 0016 1368     		ldr	r3, [r2]
 1350 0018 0133     		adds	r3, r3, #1
 256:Src/main.c    ****             count_10hz = 0;
 1351              		.loc 1 256 12 view .LVU318
 1352 001a 1360     		str	r3, [r2]
 1353 001c B3F5FA7F 		cmp	r3, #500
 1354 0020 05D3     		bcc	.L90
 257:Src/main.c    ****             trigger_flag = 1;
 1355              		.loc 1 257 13 is_stmt 1 view .LVU319
 257:Src/main.c    ****             trigger_flag = 1;
 1356              		.loc 1 257 24 is_stmt 0 view .LVU320
 1357 0022 1346     		mov	r3, r2
 1358 0024 0022     		movs	r2, #0
 1359 0026 1A60     		str	r2, [r3]
 258:Src/main.c    ****         }
 1360              		.loc 1 258 13 is_stmt 1 view .LVU321
 258:Src/main.c    ****         }
 1361              		.loc 1 258 26 is_stmt 0 view .LVU322
 1362 0028 164B     		ldr	r3, .L96+8
 1363 002a 0122     		movs	r2, #1
 1364 002c 1A70     		strb	r2, [r3]
 1365              	.L90:
 261:Src/main.c    ****             count_1hz = 0;
 1366              		.loc 1 261 9 is_stmt 1 view .LVU323
 261:Src/main.c    ****             count_1hz = 0;
 1367              		.loc 1 261 13 is_stmt 0 view .LVU324
 1368 002e 164A     		ldr	r2, .L96+12
 1369 0030 1368     		ldr	r3, [r2]
 1370 0032 0133     		adds	r3, r3, #1
 261:Src/main.c    ****             count_1hz = 0;
 1371              		.loc 1 261 12 view .LVU325
ARM GAS  /tmp/ccy4tSof.s 			page 38


 1372 0034 1360     		str	r3, [r2]
 1373 0036 41F28732 		movw	r2, #4999
 1374 003a 9342     		cmp	r3, r2
 1375 003c 1DD9     		bls	.L88
 262:Src/main.c    ****             send_gps_flag = 1;
 1376              		.loc 1 262 13 is_stmt 1 view .LVU326
 262:Src/main.c    ****             send_gps_flag = 1;
 1377              		.loc 1 262 23 is_stmt 0 view .LVU327
 1378 003e 124B     		ldr	r3, .L96+12
 1379 0040 0022     		movs	r2, #0
 1380 0042 1A60     		str	r2, [r3]
 263:Src/main.c    **** 
 1381              		.loc 1 263 13 is_stmt 1 view .LVU328
 263:Src/main.c    **** 
 1382              		.loc 1 263 27 is_stmt 0 view .LVU329
 1383 0044 114B     		ldr	r3, .L96+16
 1384 0046 0122     		movs	r2, #1
 1385 0048 1A70     		strb	r2, [r3]
 265:Src/main.c    ****               Error_Handler();
 1386              		.loc 1 265 13 is_stmt 1 view .LVU330
 265:Src/main.c    ****               Error_Handler();
 1387              		.loc 1 265 16 is_stmt 0 view .LVU331
 1388 004a 114B     		ldr	r3, .L96+20
 1389 004c 1B78     		ldrb	r3, [r3]	@ zero_extendqisi2
 265:Src/main.c    ****               Error_Handler();
 1390              		.loc 1 265 15 view .LVU332
 1391 004e 2BB9     		cbnz	r3, .L95
 268:Src/main.c    ****             for(int i = 0; i < for_delay; i ++);
 1392              		.loc 1 268 13 is_stmt 1 view .LVU333
 1393 0050 104B     		ldr	r3, .L96+24
 1394 0052 1868     		ldr	r0, [r3]
 1395 0054 FFF7FEFF 		bl	DWT_Delay
 1396              	.LVL109:
 269:Src/main.c    ****             HAL_GPIO_WritePin(GPIOB, GPIO_PIN_3, GPIO_PIN_SET); // PPS HIGH
 1397              		.loc 1 269 13 view .LVU334
 1398              	.LBB13:
 269:Src/main.c    ****             HAL_GPIO_WritePin(GPIOB, GPIO_PIN_3, GPIO_PIN_SET); // PPS HIGH
 1399              		.loc 1 269 17 view .LVU335
 269:Src/main.c    ****             HAL_GPIO_WritePin(GPIOB, GPIO_PIN_3, GPIO_PIN_SET); // PPS HIGH
 1400              		.loc 1 269 21 is_stmt 0 view .LVU336
 1401 0058 0023     		movs	r3, #0
 269:Src/main.c    ****             HAL_GPIO_WritePin(GPIOB, GPIO_PIN_3, GPIO_PIN_SET); // PPS HIGH
 1402              		.loc 1 269 13 view .LVU337
 1403 005a 02E0     		b	.L92
 1404              	.LVL110:
 1405              	.L95:
 269:Src/main.c    ****             HAL_GPIO_WritePin(GPIOB, GPIO_PIN_3, GPIO_PIN_SET); // PPS HIGH
 1406              		.loc 1 269 13 view .LVU338
 1407              	.LBE13:
 266:Src/main.c    ****             }
 1408              		.loc 1 266 15 is_stmt 1 view .LVU339
 1409 005c FFF7FEFF 		bl	Error_Handler
 1410              	.LVL111:
 1411              	.L93:
 1412              	.LBB14:
 269:Src/main.c    ****             HAL_GPIO_WritePin(GPIOB, GPIO_PIN_3, GPIO_PIN_SET); // PPS HIGH
 1413              		.loc 1 269 48 discriminator 3 view .LVU340
ARM GAS  /tmp/ccy4tSof.s 			page 39


 269:Src/main.c    ****             HAL_GPIO_WritePin(GPIOB, GPIO_PIN_3, GPIO_PIN_SET); // PPS HIGH
 1414              		.loc 1 269 43 discriminator 3 view .LVU341
 269:Src/main.c    ****             HAL_GPIO_WritePin(GPIOB, GPIO_PIN_3, GPIO_PIN_SET); // PPS HIGH
 1415              		.loc 1 269 45 is_stmt 0 discriminator 3 view .LVU342
 1416 0060 0133     		adds	r3, r3, #1
 1417              	.LVL112:
 1418              	.L92:
 269:Src/main.c    ****             HAL_GPIO_WritePin(GPIOB, GPIO_PIN_3, GPIO_PIN_SET); // PPS HIGH
 1419              		.loc 1 269 28 is_stmt 1 discriminator 1 view .LVU343
 269:Src/main.c    ****             HAL_GPIO_WritePin(GPIOB, GPIO_PIN_3, GPIO_PIN_SET); // PPS HIGH
 1420              		.loc 1 269 30 is_stmt 0 discriminator 1 view .LVU344
 1421 0062 0D4A     		ldr	r2, .L96+28
 1422 0064 1268     		ldr	r2, [r2]
 269:Src/main.c    ****             HAL_GPIO_WritePin(GPIOB, GPIO_PIN_3, GPIO_PIN_SET); // PPS HIGH
 1423              		.loc 1 269 13 discriminator 1 view .LVU345
 1424 0066 9342     		cmp	r3, r2
 1425 0068 FAD3     		bcc	.L93
 1426              	.LBE14:
 270:Src/main.c    ****             pps_flag = 1;  // Set flag to turn off PPS in ISR after 100 ms
 1427              		.loc 1 270 13 is_stmt 1 view .LVU346
 1428 006a 0122     		movs	r2, #1
 1429 006c 0821     		movs	r1, #8
 1430 006e 0B48     		ldr	r0, .L96+32
 1431 0070 FFF7FEFF 		bl	HAL_GPIO_WritePin
 1432              	.LVL113:
 271:Src/main.c    ****         }
 1433              		.loc 1 271 13 view .LVU347
 271:Src/main.c    ****         }
 1434              		.loc 1 271 22 is_stmt 0 view .LVU348
 1435 0074 064B     		ldr	r3, .L96+20
 1436 0076 0122     		movs	r2, #1
 1437 0078 1A70     		strb	r2, [r3]
 1438              	.L88:
 271:Src/main.c    ****         }
 1439              		.loc 1 271 22 view .LVU349
 1440              	.LBE12:
 275:Src/main.c    **** 
 1441              		.loc 1 275 1 view .LVU350
 1442 007a 08BD     		pop	{r3, pc}
 1443              	.L97:
 1444              		.align	2
 1445              	.L96:
 1446 007c 00000000 		.word	htim4
 1447 0080 00000000 		.word	.LANCHOR20
 1448 0084 00000000 		.word	.LANCHOR21
 1449 0088 00000000 		.word	.LANCHOR22
 1450 008c 00000000 		.word	.LANCHOR23
 1451 0090 00000000 		.word	.LANCHOR12
 1452 0094 00000000 		.word	.LANCHOR18
 1453 0098 00000000 		.word	.LANCHOR24
 1454 009c 000C0140 		.word	1073810432
 1455              		.cfi_endproc
 1456              	.LFE75:
 1458              		.section	.text.SystemClock_Config,"ax",%progbits
 1459              		.align	1
 1460              		.global	SystemClock_Config
 1461              		.syntax unified
ARM GAS  /tmp/ccy4tSof.s 			page 40


 1462              		.thumb
 1463              		.thumb_func
 1464              		.fpu softvfp
 1466              	SystemClock_Config:
 1467              	.LFB80:
 531:Src/main.c    ****   RCC_OscInitTypeDef RCC_OscInitStruct = {0};
 1468              		.loc 1 531 1 is_stmt 1 view -0
 1469              		.cfi_startproc
 1470              		@ args = 0, pretend = 0, frame = 64
 1471              		@ frame_needed = 0, uses_anonymous_args = 0
 1472 0000 00B5     		push	{lr}
 1473              	.LCFI14:
 1474              		.cfi_def_cfa_offset 4
 1475              		.cfi_offset 14, -4
 1476 0002 91B0     		sub	sp, sp, #68
 1477              	.LCFI15:
 1478              		.cfi_def_cfa_offset 72
 532:Src/main.c    ****   RCC_ClkInitTypeDef RCC_ClkInitStruct = {0};
 1479              		.loc 1 532 3 view .LVU352
 532:Src/main.c    ****   RCC_ClkInitTypeDef RCC_ClkInitStruct = {0};
 1480              		.loc 1 532 22 is_stmt 0 view .LVU353
 1481 0004 0023     		movs	r3, #0
 1482 0006 0993     		str	r3, [sp, #36]
 1483 0008 0B93     		str	r3, [sp, #44]
 1484 000a 0C93     		str	r3, [sp, #48]
 533:Src/main.c    **** 
 1485              		.loc 1 533 3 is_stmt 1 view .LVU354
 533:Src/main.c    **** 
 1486              		.loc 1 533 22 is_stmt 0 view .LVU355
 1487 000c 0193     		str	r3, [sp, #4]
 1488 000e 0293     		str	r3, [sp, #8]
 1489 0010 0393     		str	r3, [sp, #12]
 1490 0012 0493     		str	r3, [sp, #16]
 1491 0014 0593     		str	r3, [sp, #20]
 538:Src/main.c    ****   RCC_OscInitStruct.HSEState = RCC_HSE_ON;
 1492              		.loc 1 538 3 is_stmt 1 view .LVU356
 538:Src/main.c    ****   RCC_OscInitStruct.HSEState = RCC_HSE_ON;
 1493              		.loc 1 538 36 is_stmt 0 view .LVU357
 1494 0016 0121     		movs	r1, #1
 1495 0018 0691     		str	r1, [sp, #24]
 539:Src/main.c    ****   RCC_OscInitStruct.HSEPredivValue = RCC_HSE_PREDIV_DIV1;
 1496              		.loc 1 539 3 is_stmt 1 view .LVU358
 539:Src/main.c    ****   RCC_OscInitStruct.HSEPredivValue = RCC_HSE_PREDIV_DIV1;
 1497              		.loc 1 539 30 is_stmt 0 view .LVU359
 1498 001a 4FF48032 		mov	r2, #65536
 1499 001e 0792     		str	r2, [sp, #28]
 540:Src/main.c    ****   RCC_OscInitStruct.HSIState = RCC_HSI_ON;
 1500              		.loc 1 540 3 is_stmt 1 view .LVU360
 540:Src/main.c    ****   RCC_OscInitStruct.HSIState = RCC_HSI_ON;
 1501              		.loc 1 540 36 is_stmt 0 view .LVU361
 1502 0020 0893     		str	r3, [sp, #32]
 541:Src/main.c    ****   RCC_OscInitStruct.PLL.PLLState = RCC_PLL_ON;
 1503              		.loc 1 541 3 is_stmt 1 view .LVU362
 541:Src/main.c    ****   RCC_OscInitStruct.PLL.PLLState = RCC_PLL_ON;
 1504              		.loc 1 541 30 is_stmt 0 view .LVU363
 1505 0022 0A91     		str	r1, [sp, #40]
 542:Src/main.c    ****   RCC_OscInitStruct.PLL.PLLSource = RCC_PLLSOURCE_HSE;
ARM GAS  /tmp/ccy4tSof.s 			page 41


 1506              		.loc 1 542 3 is_stmt 1 view .LVU364
 542:Src/main.c    ****   RCC_OscInitStruct.PLL.PLLSource = RCC_PLLSOURCE_HSE;
 1507              		.loc 1 542 34 is_stmt 0 view .LVU365
 1508 0024 0223     		movs	r3, #2
 1509 0026 0D93     		str	r3, [sp, #52]
 543:Src/main.c    ****   RCC_OscInitStruct.PLL.PLLMUL = RCC_PLL_MUL9;
 1510              		.loc 1 543 3 is_stmt 1 view .LVU366
 543:Src/main.c    ****   RCC_OscInitStruct.PLL.PLLMUL = RCC_PLL_MUL9;
 1511              		.loc 1 543 35 is_stmt 0 view .LVU367
 1512 0028 0E92     		str	r2, [sp, #56]
 544:Src/main.c    ****   if (HAL_RCC_OscConfig(&RCC_OscInitStruct) != HAL_OK)
 1513              		.loc 1 544 3 is_stmt 1 view .LVU368
 544:Src/main.c    ****   if (HAL_RCC_OscConfig(&RCC_OscInitStruct) != HAL_OK)
 1514              		.loc 1 544 32 is_stmt 0 view .LVU369
 1515 002a 4FF4E013 		mov	r3, #1835008
 1516 002e 0F93     		str	r3, [sp, #60]
 545:Src/main.c    ****   {
 1517              		.loc 1 545 3 is_stmt 1 view .LVU370
 545:Src/main.c    ****   {
 1518              		.loc 1 545 7 is_stmt 0 view .LVU371
 1519 0030 06A8     		add	r0, sp, #24
 1520 0032 FFF7FEFF 		bl	HAL_RCC_OscConfig
 1521              	.LVL114:
 545:Src/main.c    ****   {
 1522              		.loc 1 545 6 view .LVU372
 1523 0036 80B9     		cbnz	r0, .L102
 552:Src/main.c    ****                               |RCC_CLOCKTYPE_PCLK1|RCC_CLOCKTYPE_PCLK2;
 1524              		.loc 1 552 3 is_stmt 1 view .LVU373
 552:Src/main.c    ****                               |RCC_CLOCKTYPE_PCLK1|RCC_CLOCKTYPE_PCLK2;
 1525              		.loc 1 552 31 is_stmt 0 view .LVU374
 1526 0038 0F23     		movs	r3, #15
 1527 003a 0193     		str	r3, [sp, #4]
 554:Src/main.c    ****   RCC_ClkInitStruct.AHBCLKDivider = RCC_SYSCLK_DIV1;
 1528              		.loc 1 554 3 is_stmt 1 view .LVU375
 554:Src/main.c    ****   RCC_ClkInitStruct.AHBCLKDivider = RCC_SYSCLK_DIV1;
 1529              		.loc 1 554 34 is_stmt 0 view .LVU376
 1530 003c 0221     		movs	r1, #2
 1531 003e 0291     		str	r1, [sp, #8]
 555:Src/main.c    ****   RCC_ClkInitStruct.APB1CLKDivider = RCC_HCLK_DIV2;
 1532              		.loc 1 555 3 is_stmt 1 view .LVU377
 555:Src/main.c    ****   RCC_ClkInitStruct.APB1CLKDivider = RCC_HCLK_DIV2;
 1533              		.loc 1 555 35 is_stmt 0 view .LVU378
 1534 0040 0023     		movs	r3, #0
 1535 0042 0393     		str	r3, [sp, #12]
 556:Src/main.c    ****   RCC_ClkInitStruct.APB2CLKDivider = RCC_HCLK_DIV1;
 1536              		.loc 1 556 3 is_stmt 1 view .LVU379
 556:Src/main.c    ****   RCC_ClkInitStruct.APB2CLKDivider = RCC_HCLK_DIV1;
 1537              		.loc 1 556 36 is_stmt 0 view .LVU380
 1538 0044 4FF48062 		mov	r2, #1024
 1539 0048 0492     		str	r2, [sp, #16]
 557:Src/main.c    **** 
 1540              		.loc 1 557 3 is_stmt 1 view .LVU381
 557:Src/main.c    **** 
 1541              		.loc 1 557 36 is_stmt 0 view .LVU382
 1542 004a 0593     		str	r3, [sp, #20]
 559:Src/main.c    ****   {
 1543              		.loc 1 559 3 is_stmt 1 view .LVU383
ARM GAS  /tmp/ccy4tSof.s 			page 42


 559:Src/main.c    ****   {
 1544              		.loc 1 559 7 is_stmt 0 view .LVU384
 1545 004c 01A8     		add	r0, sp, #4
 1546 004e FFF7FEFF 		bl	HAL_RCC_ClockConfig
 1547              	.LVL115:
 559:Src/main.c    ****   {
 1548              		.loc 1 559 6 view .LVU385
 1549 0052 20B9     		cbnz	r0, .L103
 563:Src/main.c    **** 
 1550              		.loc 1 563 1 view .LVU386
 1551 0054 11B0     		add	sp, sp, #68
 1552              	.LCFI16:
 1553              		.cfi_remember_state
 1554              		.cfi_def_cfa_offset 4
 1555              		@ sp needed
 1556 0056 5DF804FB 		ldr	pc, [sp], #4
 1557              	.L102:
 1558              	.LCFI17:
 1559              		.cfi_restore_state
 547:Src/main.c    ****   }
 1560              		.loc 1 547 5 is_stmt 1 view .LVU387
 1561 005a FFF7FEFF 		bl	Error_Handler
 1562              	.LVL116:
 1563              	.L103:
 561:Src/main.c    ****   }
 1564              		.loc 1 561 5 view .LVU388
 1565 005e FFF7FEFF 		bl	Error_Handler
 1566              	.LVL117:
 1567              		.cfi_endproc
 1568              	.LFE80:
 1570              		.section	.text.main,"ax",%progbits
 1571              		.align	1
 1572              		.global	main
 1573              		.syntax unified
 1574              		.thumb
 1575              		.thumb_func
 1576              		.fpu softvfp
 1578              	main:
 1579              	.LFB79:
 398:Src/main.c    **** 
 1580              		.loc 1 398 1 view -0
 1581              		.cfi_startproc
 1582              		@ Volatile: function does not return.
 1583              		@ args = 0, pretend = 0, frame = 0
 1584              		@ frame_needed = 0, uses_anonymous_args = 0
 1585 0000 08B5     		push	{r3, lr}
 1586              	.LCFI18:
 1587              		.cfi_def_cfa_offset 8
 1588              		.cfi_offset 3, -8
 1589              		.cfi_offset 14, -4
 407:Src/main.c    **** 
 1590              		.loc 1 407 3 view .LVU390
 1591 0002 FFF7FEFF 		bl	HAL_Init
 1592              	.LVL118:
 414:Src/main.c    **** 
 1593              		.loc 1 414 3 view .LVU391
 1594 0006 FFF7FEFF 		bl	SystemClock_Config
ARM GAS  /tmp/ccy4tSof.s 			page 43


 1595              	.LVL119:
 417:Src/main.c    ****   /* USER CODE END SysInit */
 1596              		.loc 1 417 3 view .LVU392
 1597 000a FFF7FEFF 		bl	DWT_Init
 1598              	.LVL120:
 421:Src/main.c    ****   MX_DMA_Init();
 1599              		.loc 1 421 3 view .LVU393
 1600 000e FFF7FEFF 		bl	MX_GPIO_Init
 1601              	.LVL121:
 422:Src/main.c    ****   MX_TIM2_Init();
 1602              		.loc 1 422 3 view .LVU394
 1603 0012 FFF7FEFF 		bl	MX_DMA_Init
 1604              	.LVL122:
 423:Src/main.c    ****   MX_USART1_UART_Init();
 1605              		.loc 1 423 3 view .LVU395
 1606 0016 FFF7FEFF 		bl	MX_TIM2_Init
 1607              	.LVL123:
 424:Src/main.c    ****   MX_USART3_UART_Init();
 1608              		.loc 1 424 3 view .LVU396
 1609 001a FFF7FEFF 		bl	MX_USART1_UART_Init
 1610              	.LVL124:
 425:Src/main.c    ****   MX_TIM3_Init();
 1611              		.loc 1 425 3 view .LVU397
 1612 001e FFF7FEFF 		bl	MX_USART3_UART_Init
 1613              	.LVL125:
 426:Src/main.c    ****   MX_TIM4_Init();
 1614              		.loc 1 426 3 view .LVU398
 1615 0022 FFF7FEFF 		bl	MX_TIM3_Init
 1616              	.LVL126:
 427:Src/main.c    ****   /* USER CODE BEGIN 2 */
 1617              		.loc 1 427 3 view .LVU399
 1618 0026 FFF7FEFF 		bl	MX_TIM4_Init
 1619              	.LVL127:
 432:Src/main.c    ****     Error_Handler();
 1620              		.loc 1 432 3 view .LVU400
 432:Src/main.c    ****     Error_Handler();
 1621              		.loc 1 432 7 is_stmt 0 view .LVU401
 1622 002a 4948     		ldr	r0, .L119
 1623 002c FFF7FEFF 		bl	HAL_TIM_Base_Start_IT
 1624              	.LVL128:
 432:Src/main.c    ****     Error_Handler();
 1625              		.loc 1 432 6 view .LVU402
 1626 0030 08B1     		cbz	r0, .L105
 433:Src/main.c    ****   }
 1627              		.loc 1 433 5 is_stmt 1 view .LVU403
 1628 0032 FFF7FEFF 		bl	Error_Handler
 1629              	.LVL129:
 1630              	.L105:
 435:Src/main.c    ****   HAL_NVIC_EnableIRQ(TIM3_IRQn);
 1631              		.loc 1 435 3 view .LVU404
 1632 0036 0122     		movs	r2, #1
 1633 0038 1146     		mov	r1, r2
 1634 003a 1D20     		movs	r0, #29
 1635 003c FFF7FEFF 		bl	HAL_NVIC_SetPriority
 1636              	.LVL130:
 436:Src/main.c    **** 
 1637              		.loc 1 436 3 view .LVU405
ARM GAS  /tmp/ccy4tSof.s 			page 44


 1638 0040 1D20     		movs	r0, #29
 1639 0042 FFF7FEFF 		bl	HAL_NVIC_EnableIRQ
 1640              	.LVL131:
 438:Src/main.c    ****     Error_Handler();
 1641              		.loc 1 438 3 view .LVU406
 438:Src/main.c    ****     Error_Handler();
 1642              		.loc 1 438 7 is_stmt 0 view .LVU407
 1643 0046 4348     		ldr	r0, .L119+4
 1644 0048 FFF7FEFF 		bl	HAL_TIM_Base_Start_IT
 1645              	.LVL132:
 438:Src/main.c    ****     Error_Handler();
 1646              		.loc 1 438 6 view .LVU408
 1647 004c 08B1     		cbz	r0, .L106
 439:Src/main.c    ****   }
 1648              		.loc 1 439 5 is_stmt 1 view .LVU409
 1649 004e FFF7FEFF 		bl	Error_Handler
 1650              	.LVL133:
 1651              	.L106:
 441:Src/main.c    ****   HAL_NVIC_EnableIRQ(TIM4_IRQn);
 1652              		.loc 1 441 3 view .LVU410
 1653 0052 0022     		movs	r2, #0
 1654 0054 1146     		mov	r1, r2
 1655 0056 1E20     		movs	r0, #30
 1656 0058 FFF7FEFF 		bl	HAL_NVIC_SetPriority
 1657              	.LVL134:
 442:Src/main.c    ****   baseTick = HAL_GetTick();
 1658              		.loc 1 442 3 view .LVU411
 1659 005c 1E20     		movs	r0, #30
 1660 005e FFF7FEFF 		bl	HAL_NVIC_EnableIRQ
 1661              	.LVL135:
 443:Src/main.c    **** 
 1662              		.loc 1 443 3 view .LVU412
 443:Src/main.c    **** 
 1663              		.loc 1 443 14 is_stmt 0 view .LVU413
 1664 0062 FFF7FEFF 		bl	HAL_GetTick
 1665              	.LVL136:
 443:Src/main.c    **** 
 1666              		.loc 1 443 12 view .LVU414
 1667 0066 3C4B     		ldr	r3, .L119+8
 1668 0068 1860     		str	r0, [r3]
 445:Src/main.c    ****     Error_Handler();  
 1669              		.loc 1 445 3 is_stmt 1 view .LVU415
 445:Src/main.c    ****     Error_Handler();  
 1670              		.loc 1 445 7 is_stmt 0 view .LVU416
 1671 006a 3C48     		ldr	r0, .L119+12
 1672 006c FFF7FEFF 		bl	HAL_TIM_Base_Start_IT
 1673              	.LVL137:
 445:Src/main.c    ****     Error_Handler();  
 1674              		.loc 1 445 6 view .LVU417
 1675 0070 08B1     		cbz	r0, .L107
 446:Src/main.c    ****   }
 1676              		.loc 1 446 5 is_stmt 1 view .LVU418
 1677 0072 FFF7FEFF 		bl	Error_Handler
 1678              	.LVL138:
 1679              	.L107:
 448:Src/main.c    ****   HAL_NVIC_EnableIRQ(TIM2_IRQn);
 1680              		.loc 1 448 3 view .LVU419
ARM GAS  /tmp/ccy4tSof.s 			page 45


 1681 0076 0222     		movs	r2, #2
 1682 0078 1146     		mov	r1, r2
 1683 007a 1C20     		movs	r0, #28
 1684 007c FFF7FEFF 		bl	HAL_NVIC_SetPriority
 1685              	.LVL139:
 449:Src/main.c    **** 
 1686              		.loc 1 449 3 view .LVU420
 1687 0080 1C20     		movs	r0, #28
 1688 0082 FFF7FEFF 		bl	HAL_NVIC_EnableIRQ
 1689              	.LVL140:
 458:Src/main.c    ****       Error_Handler(); 
 1690              		.loc 1 458 3 view .LVU421
 458:Src/main.c    ****       Error_Handler(); 
 1691              		.loc 1 458 7 is_stmt 0 view .LVU422
 1692 0086 0122     		movs	r2, #1
 1693 0088 3549     		ldr	r1, .L119+16
 1694 008a 3648     		ldr	r0, .L119+20
 1695 008c FFF7FEFF 		bl	HAL_UART_Receive_IT
 1696              	.LVL141:
 458:Src/main.c    ****       Error_Handler(); 
 1697              		.loc 1 458 6 view .LVU423
 1698 0090 90B1     		cbz	r0, .L114
 459:Src/main.c    ****   }
 1699              		.loc 1 459 7 is_stmt 1 view .LVU424
 1700 0092 FFF7FEFF 		bl	Error_Handler
 1701              	.LVL142:
 1702              	.L118:
 469:Src/main.c    ****               trigger_led_count = 0;
 1703              		.loc 1 469 15 view .LVU425
 469:Src/main.c    ****               trigger_led_count = 0;
 1704              		.loc 1 469 32 is_stmt 0 view .LVU426
 1705 0096 0023     		movs	r3, #0
 1706 0098 334A     		ldr	r2, .L119+24
 1707 009a 1370     		strb	r3, [r2]
 470:Src/main.c    ****               HAL_GPIO_WritePin(GPIOB, GPIO_PIN_2, GPIO_PIN_SET); // Trigger LED OFF
 1708              		.loc 1 470 15 is_stmt 1 view .LVU427
 470:Src/main.c    ****               HAL_GPIO_WritePin(GPIOB, GPIO_PIN_2, GPIO_PIN_SET); // Trigger LED OFF
 1709              		.loc 1 470 33 is_stmt 0 view .LVU428
 1710 009c 334A     		ldr	r2, .L119+28
 1711 009e 1360     		str	r3, [r2]
 471:Src/main.c    ****           }
 1712              		.loc 1 471 15 is_stmt 1 view .LVU429
 1713 00a0 0122     		movs	r2, #1
 1714 00a2 0421     		movs	r1, #4
 1715 00a4 3248     		ldr	r0, .L119+32
 1716 00a6 FFF7FEFF 		bl	HAL_GPIO_WritePin
 1717              	.LVL143:
 1718 00aa 10E0     		b	.L109
 1719              	.L110:
 481:Src/main.c    **** 
 1720              		.loc 1 481 11 view .LVU430
 481:Src/main.c    **** 
 1721              		.loc 1 481 15 is_stmt 0 view .LVU431
 1722 00ac 314B     		ldr	r3, .L119+36
 1723 00ae 1B78     		ldrb	r3, [r3]	@ zero_extendqisi2
 481:Src/main.c    **** 
 1724              		.loc 1 481 14 view .LVU432
ARM GAS  /tmp/ccy4tSof.s 			page 46


 1725 00b0 F3B9     		cbnz	r3, .L116
 1726              	.L111:
 493:Src/main.c    **** 
 1727              		.loc 1 493 11 is_stmt 1 view .LVU433
 493:Src/main.c    **** 
 1728              		.loc 1 493 15 is_stmt 0 view .LVU434
 1729 00b2 314B     		ldr	r3, .L119+40
 1730 00b4 1B78     		ldrb	r3, [r3]	@ zero_extendqisi2
 493:Src/main.c    **** 
 1731              		.loc 1 493 14 view .LVU435
 1732 00b6 53BB     		cbnz	r3, .L117
 1733              	.L114:
 465:Src/main.c    **** 
 1734              		.loc 1 465 12 is_stmt 1 view .LVU436
 465:Src/main.c    **** 
 1735              		.loc 1 465 13 is_stmt 0 view .LVU437
 1736 00b8 304B     		ldr	r3, .L119+44
 1737 00ba 1B78     		ldrb	r3, [r3]	@ zero_extendqisi2
 465:Src/main.c    **** 
 1738              		.loc 1 465 12 view .LVU438
 1739 00bc 002B     		cmp	r3, #0
 1740 00be FBD0     		beq	.L114
 467:Src/main.c    ****           {
 1741              		.loc 1 467 11 is_stmt 1 view .LVU439
 467:Src/main.c    ****           {
 1742              		.loc 1 467 15 is_stmt 0 view .LVU440
 1743 00c0 294B     		ldr	r3, .L119+24
 1744 00c2 1B78     		ldrb	r3, [r3]	@ zero_extendqisi2
 467:Src/main.c    ****           {
 1745              		.loc 1 467 14 view .LVU441
 1746 00c4 1BB1     		cbz	r3, .L109
 467:Src/main.c    ****           {
 1747              		.loc 1 467 53 discriminator 1 view .LVU442
 1748 00c6 294B     		ldr	r3, .L119+28
 1749 00c8 1B68     		ldr	r3, [r3]
 467:Src/main.c    ****           {
 1750              		.loc 1 467 32 discriminator 1 view .LVU443
 1751 00ca 042B     		cmp	r3, #4
 1752 00cc E3DC     		bgt	.L118
 1753              	.L109:
 474:Src/main.c    ****           {
 1754              		.loc 1 474 11 is_stmt 1 view .LVU444
 474:Src/main.c    ****           {
 1755              		.loc 1 474 15 is_stmt 0 view .LVU445
 1756 00ce 2C4B     		ldr	r3, .L119+48
 1757 00d0 1B78     		ldrb	r3, [r3]	@ zero_extendqisi2
 474:Src/main.c    ****           {
 1758              		.loc 1 474 14 view .LVU446
 1759 00d2 002B     		cmp	r3, #0
 1760 00d4 EAD1     		bne	.L110
 474:Src/main.c    ****           {
 1761              		.loc 1 474 50 discriminator 1 view .LVU447
 1762 00d6 2B4B     		ldr	r3, .L119+52
 1763 00d8 1B68     		ldr	r3, [r3]
 474:Src/main.c    ****           {
 1764              		.loc 1 474 31 discriminator 1 view .LVU448
 1765 00da 042B     		cmp	r3, #4
ARM GAS  /tmp/ccy4tSof.s 			page 47


 1766 00dc E6DD     		ble	.L110
 476:Src/main.c    ****               HAL_GPIO_WritePin(GPIOC, GPIO_PIN_5, GPIO_PIN_SET); // LED GPRMC Sending OFF
 1767              		.loc 1 476 15 is_stmt 1 view .LVU449
 476:Src/main.c    ****               HAL_GPIO_WritePin(GPIOC, GPIO_PIN_5, GPIO_PIN_SET); // LED GPRMC Sending OFF
 1768              		.loc 1 476 31 is_stmt 0 view .LVU450
 1769 00de 294B     		ldr	r3, .L119+52
 1770 00e0 0022     		movs	r2, #0
 1771 00e2 1A60     		str	r2, [r3]
 477:Src/main.c    ****           }
 1772              		.loc 1 477 15 is_stmt 1 view .LVU451
 1773 00e4 0122     		movs	r2, #1
 1774 00e6 2021     		movs	r1, #32
 1775 00e8 2748     		ldr	r0, .L119+56
 1776 00ea FFF7FEFF 		bl	HAL_GPIO_WritePin
 1777              	.LVL144:
 1778 00ee DDE7     		b	.L110
 1779              	.L116:
 483:Src/main.c    **** 
 1780              		.loc 1 483 15 view .LVU452
 483:Src/main.c    **** 
 1781              		.loc 1 483 28 is_stmt 0 view .LVU453
 1782 00f0 0022     		movs	r2, #0
 1783 00f2 204B     		ldr	r3, .L119+36
 1784 00f4 1A70     		strb	r2, [r3]
 486:Src/main.c    ****               trigger_led_flag = 1;
 1785              		.loc 1 486 15 is_stmt 1 view .LVU454
 1786 00f6 0421     		movs	r1, #4
 1787 00f8 1D48     		ldr	r0, .L119+32
 1788 00fa FFF7FEFF 		bl	HAL_GPIO_WritePin
 1789              	.LVL145:
 487:Src/main.c    **** 
 1790              		.loc 1 487 15 view .LVU455
 487:Src/main.c    **** 
 1791              		.loc 1 487 32 is_stmt 0 view .LVU456
 1792 00fe 1A4B     		ldr	r3, .L119+24
 1793 0100 0122     		movs	r2, #1
 1794 0102 1A70     		strb	r2, [r3]
 489:Src/main.c    ****               
 1795              		.loc 1 489 15 is_stmt 1 view .LVU457
 1796 0104 1021     		movs	r1, #16
 1797 0106 2048     		ldr	r0, .L119+56
 1798 0108 FFF7FEFF 		bl	HAL_GPIO_TogglePin
 1799              	.LVL146:
 1800 010c D1E7     		b	.L111
 1801              	.L117:
 496:Src/main.c    **** 
 1802              		.loc 1 496 15 view .LVU458
 496:Src/main.c    **** 
 1803              		.loc 1 496 29 is_stmt 0 view .LVU459
 1804 010e 0022     		movs	r2, #0
 1805 0110 194B     		ldr	r3, .L119+40
 1806 0112 1A70     		strb	r2, [r3]
 498:Src/main.c    ****               gprmc_led_flag = 1;
 1807              		.loc 1 498 15 is_stmt 1 view .LVU460
 1808 0114 2021     		movs	r1, #32
 1809 0116 1C48     		ldr	r0, .L119+56
 1810 0118 FFF7FEFF 		bl	HAL_GPIO_WritePin
ARM GAS  /tmp/ccy4tSof.s 			page 48


 1811              	.LVL147:
 499:Src/main.c    **** 
 1812              		.loc 1 499 15 view .LVU461
 499:Src/main.c    **** 
 1813              		.loc 1 499 30 is_stmt 0 view .LVU462
 1814 011c 184B     		ldr	r3, .L119+48
 1815 011e 0122     		movs	r2, #1
 1816 0120 1A70     		strb	r2, [r3]
 501:Src/main.c    ****               HAL_UART_Transmit(&huart1, (uint8_t *)gprmc_data, strlen(gprmc_data), 6);
 1817              		.loc 1 501 15 is_stmt 1 view .LVU463
 1818 0122 1A4B     		ldr	r3, .L119+60
 1819 0124 1868     		ldr	r0, [r3]
 1820 0126 FFF7FEFF 		bl	GPRMC_Generator
 1821              	.LVL148:
 502:Src/main.c    ****               // HAL_UART_Transmit_DMA(&huart1, (uint8_t *)gprmc_data, strlen(gprmc_data));
 1822              		.loc 1 502 15 view .LVU464
 502:Src/main.c    ****               // HAL_UART_Transmit_DMA(&huart1, (uint8_t *)gprmc_data, strlen(gprmc_data));
 1823              		.loc 1 502 65 is_stmt 0 view .LVU465
 1824 012a 194C     		ldr	r4, .L119+64
 1825 012c 2046     		mov	r0, r4
 1826 012e FFF7FEFF 		bl	strlen
 1827              	.LVL149:
 502:Src/main.c    ****               // HAL_UART_Transmit_DMA(&huart1, (uint8_t *)gprmc_data, strlen(gprmc_data));
 1828              		.loc 1 502 15 view .LVU466
 1829 0132 0623     		movs	r3, #6
 1830 0134 82B2     		uxth	r2, r0
 1831 0136 2146     		mov	r1, r4
 1832 0138 0A48     		ldr	r0, .L119+20
 1833 013a FFF7FEFF 		bl	HAL_UART_Transmit
 1834              	.LVL150:
 505:Src/main.c    ****               
 1835              		.loc 1 505 15 is_stmt 1 view .LVU467
 505:Src/main.c    ****               
 1836              		.loc 1 505 69 is_stmt 0 view .LVU468
 1837 013e 2046     		mov	r0, r4
 1838 0140 FFF7FEFF 		bl	strlen
 1839              	.LVL151:
 505:Src/main.c    ****               
 1840              		.loc 1 505 15 view .LVU469
 1841 0144 82B2     		uxth	r2, r0
 1842 0146 2146     		mov	r1, r4
 1843 0148 1248     		ldr	r0, .L119+68
 1844 014a FFF7FEFF 		bl	HAL_UART_Transmit_DMA
 1845              	.LVL152:
 1846 014e B3E7     		b	.L114
 1847              	.L120:
 1848              		.align	2
 1849              	.L119:
 1850 0150 00000000 		.word	htim3
 1851 0154 00000000 		.word	htim4
 1852 0158 00000000 		.word	.LANCHOR19
 1853 015c 00000000 		.word	htim2
 1854 0160 00000000 		.word	uart_rx_buffer
 1855 0164 00000000 		.word	huart1
 1856 0168 00000000 		.word	.LANCHOR10
 1857 016c 00000000 		.word	.LANCHOR11
 1858 0170 000C0140 		.word	1073810432
ARM GAS  /tmp/ccy4tSof.s 			page 49


 1859 0174 00000000 		.word	.LANCHOR21
 1860 0178 00000000 		.word	.LANCHOR23
 1861 017c 00000000 		.word	.LANCHOR9
 1862 0180 00000000 		.word	.LANCHOR14
 1863 0184 00000000 		.word	.LANCHOR15
 1864 0188 00100140 		.word	1073811456
 1865 018c 00000000 		.word	.LANCHOR25
 1866 0190 00000000 		.word	gprmc_data
 1867 0194 00000000 		.word	huart3
 1868              		.cfi_endproc
 1869              	.LFE79:
 1871              		.global	for_delay
 1872              		.global	pps_offset
 1873              		.global	uart_transmit_flag
 1874              		.global	gprmc_led_count
 1875              		.global	gprmc_led_flag
 1876              		.global	pps_count
 1877              		.global	pps_flag
 1878              		.global	trigger_led_count
 1879              		.global	trigger_led_flag
 1880              		.global	enable_synchrone
 1881              		.global	send_gps_flag
 1882              		.global	trigger_flag
 1883              		.comm	uart_rx_buffer,1,1
 1884              		.comm	gprmc_data,100,4
 1885              		.global	elapsed
 1886              		.global	baseTick
 1887              		.global	baseTime
 1888              		.global	LONGITUDE
 1889              		.global	LATITUDE
 1890              		.global	BASE_SECOND
 1891              		.global	BASE_MINUTE
 1892              		.global	BASE_HOUR
 1893              		.global	BASE_DAY
 1894              		.global	BASE_MONTH
 1895              		.global	BASE_YEAR
 1896              		.section	.bss.BASE_MINUTE,"aw",%nobits
 1897              		.align	2
 1898              		.set	.LANCHOR1,. + 0
 1901              	BASE_MINUTE:
 1902 0000 00000000 		.space	4
 1903              		.section	.bss.BASE_SECOND,"aw",%nobits
 1904              		.align	2
 1905              		.set	.LANCHOR2,. + 0
 1908              	BASE_SECOND:
 1909 0000 00000000 		.space	4
 1910              		.section	.bss.baseTick,"aw",%nobits
 1911              		.align	2
 1912              		.set	.LANCHOR19,. + 0
 1915              	baseTick:
 1916 0000 00000000 		.space	4
 1917              		.section	.bss.baseTime,"aw",%nobits
 1918              		.align	2
 1919              		.set	.LANCHOR25,. + 0
 1922              	baseTime:
 1923 0000 00000000 		.space	4
 1924              		.section	.bss.buffer.7967,"aw",%nobits
ARM GAS  /tmp/ccy4tSof.s 			page 50


 1925              		.align	2
 1926              		.set	.LANCHOR17,. + 0
 1929              	buffer.7967:
 1930 0000 00000000 		.space	1024
 1930      00000000 
 1930      00000000 
 1930      00000000 
 1930      00000000 
 1931              		.section	.bss.count_10hz.7955,"aw",%nobits
 1932              		.align	2
 1933              		.set	.LANCHOR20,. + 0
 1936              	count_10hz.7955:
 1937 0000 00000000 		.space	4
 1938              		.section	.bss.count_1hz.7956,"aw",%nobits
 1939              		.align	2
 1940              		.set	.LANCHOR22,. + 0
 1943              	count_1hz.7956:
 1944 0000 00000000 		.space	4
 1945              		.section	.bss.elapsed,"aw",%nobits
 1946              		.align	2
 1947              		.set	.LANCHOR3,. + 0
 1950              	elapsed:
 1951 0000 00000000 		.space	4
 1952              		.section	.bss.for_delay,"aw",%nobits
 1953              		.align	2
 1954              		.set	.LANCHOR24,. + 0
 1957              	for_delay:
 1958 0000 00000000 		.space	4
 1959              		.section	.bss.gprmc_led_count,"aw",%nobits
 1960              		.align	2
 1961              		.set	.LANCHOR15,. + 0
 1964              	gprmc_led_count:
 1965 0000 00000000 		.space	4
 1966              		.section	.bss.gprmc_led_flag,"aw",%nobits
 1967              		.set	.LANCHOR14,. + 0
 1970              	gprmc_led_flag:
 1971 0000 00       		.space	1
 1972              		.section	.bss.index.7968,"aw",%nobits
 1973              		.align	2
 1974              		.set	.LANCHOR16,. + 0
 1977              	index.7968:
 1978 0000 00000000 		.space	4
 1979              		.section	.bss.pps_count,"aw",%nobits
 1980              		.align	2
 1981              		.set	.LANCHOR13,. + 0
 1984              	pps_count:
 1985 0000 00000000 		.space	4
 1986              		.section	.bss.pps_flag,"aw",%nobits
 1987              		.set	.LANCHOR12,. + 0
 1990              	pps_flag:
 1991 0000 00       		.space	1
 1992              		.section	.bss.send_gps_flag,"aw",%nobits
 1993              		.set	.LANCHOR23,. + 0
 1996              	send_gps_flag:
 1997 0000 00       		.space	1
 1998              		.section	.bss.trigger_flag,"aw",%nobits
 1999              		.set	.LANCHOR21,. + 0
ARM GAS  /tmp/ccy4tSof.s 			page 51


 2002              	trigger_flag:
 2003 0000 00       		.space	1
 2004              		.section	.bss.trigger_led_count,"aw",%nobits
 2005              		.align	2
 2006              		.set	.LANCHOR11,. + 0
 2009              	trigger_led_count:
 2010 0000 00000000 		.space	4
 2011              		.section	.bss.trigger_led_flag,"aw",%nobits
 2012              		.set	.LANCHOR10,. + 0
 2015              	trigger_led_flag:
 2016 0000 00       		.space	1
 2017              		.section	.bss.uart_transmit_flag,"aw",%nobits
 2020              	uart_transmit_flag:
 2021 0000 00       		.space	1
 2022              		.section	.data.BASE_DAY,"aw"
 2023              		.align	2
 2024              		.set	.LANCHOR6,. + 0
 2027              	BASE_DAY:
 2028 0000 0C000000 		.word	12
 2029              		.section	.data.BASE_HOUR,"aw"
 2030              		.align	2
 2031              		.set	.LANCHOR0,. + 0
 2034              	BASE_HOUR:
 2035 0000 02000000 		.word	2
 2036              		.section	.data.BASE_MONTH,"aw"
 2037              		.align	2
 2038              		.set	.LANCHOR5,. + 0
 2041              	BASE_MONTH:
 2042 0000 02000000 		.word	2
 2043              		.section	.data.BASE_YEAR,"aw"
 2044              		.align	2
 2045              		.set	.LANCHOR4,. + 0
 2048              	BASE_YEAR:
 2049 0000 D3070000 		.word	2003
 2050              		.section	.data.LATITUDE,"aw"
 2051              		.align	2
 2052              		.set	.LANCHOR8,. + 0
 2055              	LATITUDE:
 2056 0000 32323337 		.ascii	"2237.8840,N\000"
 2056      2E383834 
 2056      302C4E00 
 2057 000c 00000000 		.space	8
 2057      00000000 
 2058              		.section	.data.LONGITUDE,"aw"
 2059              		.align	2
 2060              		.set	.LANCHOR7,. + 0
 2063              	LONGITUDE:
 2064 0000 31313030 		.ascii	"11009.2400,E\000"
 2064      392E3234 
 2064      30302C45 
 2064      00
 2065 000d 00000000 		.space	7
 2065      000000
 2066              		.section	.data.enable_synchrone,"aw"
 2067              		.set	.LANCHOR9,. + 0
 2070              	enable_synchrone:
 2071 0000 01       		.byte	1
ARM GAS  /tmp/ccy4tSof.s 			page 52


 2072              		.section	.data.pps_offset,"aw"
 2073              		.align	2
 2074              		.set	.LANCHOR18,. + 0
 2077              	pps_offset:
 2078 0000 8D010000 		.word	397
 2079              		.text
 2080              	.Letext0:
 2081              		.file 2 "/usr/lib/gcc/arm-none-eabi/9.2.1/include/stdint.h"
 2082              		.file 3 "Drivers/CMSIS/Include/core_cm3.h"
 2083              		.file 4 "Drivers/CMSIS/Device/ST/STM32F1xx/Include/system_stm32f1xx.h"
 2084              		.file 5 "Drivers/CMSIS/Device/ST/STM32F1xx/Include/stm32f103xe.h"
 2085              		.file 6 "Drivers/CMSIS/Device/ST/STM32F1xx/Include/stm32f1xx.h"
 2086              		.file 7 "Drivers/STM32F1xx_HAL_Driver/Inc/stm32f1xx_hal_def.h"
 2087              		.file 8 "Drivers/STM32F1xx_HAL_Driver/Inc/stm32f1xx_hal_rcc.h"
 2088              		.file 9 "Drivers/STM32F1xx_HAL_Driver/Inc/stm32f1xx_hal_rcc_ex.h"
 2089              		.file 10 "Drivers/STM32F1xx_HAL_Driver/Inc/stm32f1xx_hal_gpio.h"
 2090              		.file 11 "Drivers/STM32F1xx_HAL_Driver/Inc/stm32f1xx_hal_dma.h"
 2091              		.file 12 "Drivers/STM32F1xx_HAL_Driver/Inc/stm32f1xx_hal_tim.h"
 2092              		.file 13 "Drivers/STM32F1xx_HAL_Driver/Inc/stm32f1xx_hal_uart.h"
 2093              		.file 14 "Drivers/STM32F1xx_HAL_Driver/Inc/stm32f1xx_hal.h"
 2094              		.file 15 "Inc/tim.h"
 2095              		.file 16 "Inc/usart.h"
 2096              		.file 17 "/usr/lib/gcc/arm-none-eabi/9.2.1/include/stddef.h"
 2097              		.file 18 "/usr/include/newlib/sys/_types.h"
 2098              		.file 19 "/usr/include/newlib/sys/reent.h"
 2099              		.file 20 "/usr/include/newlib/sys/lock.h"
 2100              		.file 21 "/usr/include/newlib/stdlib.h"
 2101              		.file 22 "Inc/gpio.h"
 2102              		.file 23 "Inc/dma.h"
 2103              		.file 24 "Drivers/STM32F1xx_HAL_Driver/Inc/stm32f1xx_hal_cortex.h"
 2104              		.file 25 "/usr/include/newlib/string.h"
 2105              		.file 26 "/usr/include/newlib/stdio.h"
 2106              		.file 27 "Drivers/CMSIS/Include/cmsis_gcc.h"
 2107              		.file 28 "<built-in>"
ARM GAS  /tmp/ccy4tSof.s 			page 53


DEFINED SYMBOLS
                            *ABS*:0000000000000000 main.c
     /tmp/ccy4tSof.s:16     .text.Error_Handler_Custom:0000000000000000 $t
     /tmp/ccy4tSof.s:24     .text.Error_Handler_Custom:0000000000000000 Error_Handler_Custom
     /tmp/ccy4tSof.s:104    .text.Error_Handler_Custom:0000000000000044 $d
     /tmp/ccy4tSof.s:111    .text.DWT_Init:0000000000000000 $t
     /tmp/ccy4tSof.s:118    .text.DWT_Init:0000000000000000 DWT_Init
     /tmp/ccy4tSof.s:154    .text.DWT_Init:0000000000000024 $d
     /tmp/ccy4tSof.s:160    .text.DWT_Delay:0000000000000000 $t
     /tmp/ccy4tSof.s:167    .text.DWT_Delay:0000000000000000 DWT_Delay
     /tmp/ccy4tSof.s:207    .text.DWT_Delay:0000000000000020 $d
     /tmp/ccy4tSof.s:214    .text.nmea_checksum:0000000000000000 $t
     /tmp/ccy4tSof.s:221    .text.nmea_checksum:0000000000000000 nmea_checksum
     /tmp/ccy4tSof.s:279    .rodata.GPRMC_Generator.str1.4:0000000000000000 $d
     /tmp/ccy4tSof.s:287    .text.GPRMC_Generator:0000000000000000 $t
     /tmp/ccy4tSof.s:294    .text.GPRMC_Generator:0000000000000000 GPRMC_Generator
     /tmp/ccy4tSof.s:446    .text.GPRMC_Generator:00000000000000d0 $d
                            *COM*:0000000000000064 gprmc_data
     /tmp/ccy4tSof.s:467    .text.TIM2_IRQHandler:0000000000000000 $t
     /tmp/ccy4tSof.s:474    .text.TIM2_IRQHandler:0000000000000000 TIM2_IRQHandler
     /tmp/ccy4tSof.s:541    .text.TIM2_IRQHandler:000000000000004c $d
     /tmp/ccy4tSof.s:549    .text.HAL_TIM_PeriodElapsedCallback:0000000000000000 $t
     /tmp/ccy4tSof.s:556    .text.HAL_TIM_PeriodElapsedCallback:0000000000000000 HAL_TIM_PeriodElapsedCallback
     /tmp/ccy4tSof.s:650    .text.HAL_TIM_PeriodElapsedCallback:0000000000000054 $d
     /tmp/ccy4tSof.s:662    .text.HAL_UART_TxCpltCallback:0000000000000000 $t
     /tmp/ccy4tSof.s:669    .text.HAL_UART_TxCpltCallback:0000000000000000 HAL_UART_TxCpltCallback
     /tmp/ccy4tSof.s:700    .text.HAL_UART_TxCpltCallback:0000000000000018 $d
     /tmp/ccy4tSof.s:706    .rodata.ProcessReceivedData.str1.4:0000000000000000 $d
     /tmp/ccy4tSof.s:723    .text.ProcessReceivedData:0000000000000000 $t
     /tmp/ccy4tSof.s:730    .text.ProcessReceivedData:0000000000000000 ProcessReceivedData
     /tmp/ccy4tSof.s:1024   .text.ProcessReceivedData:0000000000000140 $d
     /tmp/ccy4tSof.s:1030   .text.ProcessReceivedData:0000000000000158 $t
     /tmp/ccy4tSof.s:1205   .text.ProcessReceivedData:0000000000000220 $d
     /tmp/ccy4tSof.s:1228   .text.HAL_UART_RxCpltCallback:0000000000000000 $t
     /tmp/ccy4tSof.s:1235   .text.HAL_UART_RxCpltCallback:0000000000000000 HAL_UART_RxCpltCallback
     /tmp/ccy4tSof.s:1283   .text.HAL_UART_RxCpltCallback:0000000000000024 $d
                            *COM*:0000000000000001 uart_rx_buffer
     /tmp/ccy4tSof.s:1289   .text.Error_Handler:0000000000000000 $t
     /tmp/ccy4tSof.s:1296   .text.Error_Handler:0000000000000000 Error_Handler
     /tmp/ccy4tSof.s:1315   .text.TIM4_IRQHandler:0000000000000000 $t
     /tmp/ccy4tSof.s:1322   .text.TIM4_IRQHandler:0000000000000000 TIM4_IRQHandler
     /tmp/ccy4tSof.s:1446   .text.TIM4_IRQHandler:000000000000007c $d
     /tmp/ccy4tSof.s:1459   .text.SystemClock_Config:0000000000000000 $t
     /tmp/ccy4tSof.s:1466   .text.SystemClock_Config:0000000000000000 SystemClock_Config
     /tmp/ccy4tSof.s:1571   .text.main:0000000000000000 $t
     /tmp/ccy4tSof.s:1578   .text.main:0000000000000000 main
     /tmp/ccy4tSof.s:1850   .text.main:0000000000000150 $d
     /tmp/ccy4tSof.s:1957   .bss.for_delay:0000000000000000 for_delay
     /tmp/ccy4tSof.s:2077   .data.pps_offset:0000000000000000 pps_offset
     /tmp/ccy4tSof.s:2020   .bss.uart_transmit_flag:0000000000000000 uart_transmit_flag
     /tmp/ccy4tSof.s:1964   .bss.gprmc_led_count:0000000000000000 gprmc_led_count
     /tmp/ccy4tSof.s:1970   .bss.gprmc_led_flag:0000000000000000 gprmc_led_flag
     /tmp/ccy4tSof.s:1984   .bss.pps_count:0000000000000000 pps_count
     /tmp/ccy4tSof.s:1990   .bss.pps_flag:0000000000000000 pps_flag
     /tmp/ccy4tSof.s:2009   .bss.trigger_led_count:0000000000000000 trigger_led_count
     /tmp/ccy4tSof.s:2015   .bss.trigger_led_flag:0000000000000000 trigger_led_flag
     /tmp/ccy4tSof.s:2070   .data.enable_synchrone:0000000000000000 enable_synchrone
ARM GAS  /tmp/ccy4tSof.s 			page 54


     /tmp/ccy4tSof.s:1996   .bss.send_gps_flag:0000000000000000 send_gps_flag
     /tmp/ccy4tSof.s:2002   .bss.trigger_flag:0000000000000000 trigger_flag
     /tmp/ccy4tSof.s:1950   .bss.elapsed:0000000000000000 elapsed
     /tmp/ccy4tSof.s:1915   .bss.baseTick:0000000000000000 baseTick
     /tmp/ccy4tSof.s:1922   .bss.baseTime:0000000000000000 baseTime
     /tmp/ccy4tSof.s:2063   .data.LONGITUDE:0000000000000000 LONGITUDE
     /tmp/ccy4tSof.s:2055   .data.LATITUDE:0000000000000000 LATITUDE
     /tmp/ccy4tSof.s:1908   .bss.BASE_SECOND:0000000000000000 BASE_SECOND
     /tmp/ccy4tSof.s:1901   .bss.BASE_MINUTE:0000000000000000 BASE_MINUTE
     /tmp/ccy4tSof.s:2034   .data.BASE_HOUR:0000000000000000 BASE_HOUR
     /tmp/ccy4tSof.s:2027   .data.BASE_DAY:0000000000000000 BASE_DAY
     /tmp/ccy4tSof.s:2041   .data.BASE_MONTH:0000000000000000 BASE_MONTH
     /tmp/ccy4tSof.s:2048   .data.BASE_YEAR:0000000000000000 BASE_YEAR
     /tmp/ccy4tSof.s:1897   .bss.BASE_MINUTE:0000000000000000 $d
     /tmp/ccy4tSof.s:1904   .bss.BASE_SECOND:0000000000000000 $d
     /tmp/ccy4tSof.s:1911   .bss.baseTick:0000000000000000 $d
     /tmp/ccy4tSof.s:1918   .bss.baseTime:0000000000000000 $d
     /tmp/ccy4tSof.s:1925   .bss.buffer.7967:0000000000000000 $d
     /tmp/ccy4tSof.s:1929   .bss.buffer.7967:0000000000000000 buffer.7967
     /tmp/ccy4tSof.s:1932   .bss.count_10hz.7955:0000000000000000 $d
     /tmp/ccy4tSof.s:1936   .bss.count_10hz.7955:0000000000000000 count_10hz.7955
     /tmp/ccy4tSof.s:1939   .bss.count_1hz.7956:0000000000000000 $d
     /tmp/ccy4tSof.s:1943   .bss.count_1hz.7956:0000000000000000 count_1hz.7956
     /tmp/ccy4tSof.s:1946   .bss.elapsed:0000000000000000 $d
     /tmp/ccy4tSof.s:1953   .bss.for_delay:0000000000000000 $d
     /tmp/ccy4tSof.s:1960   .bss.gprmc_led_count:0000000000000000 $d
     /tmp/ccy4tSof.s:1971   .bss.gprmc_led_flag:0000000000000000 $d
     /tmp/ccy4tSof.s:1973   .bss.index.7968:0000000000000000 $d
     /tmp/ccy4tSof.s:1977   .bss.index.7968:0000000000000000 index.7968
     /tmp/ccy4tSof.s:1980   .bss.pps_count:0000000000000000 $d
     /tmp/ccy4tSof.s:1991   .bss.pps_flag:0000000000000000 $d
     /tmp/ccy4tSof.s:1997   .bss.send_gps_flag:0000000000000000 $d
     /tmp/ccy4tSof.s:2003   .bss.trigger_flag:0000000000000000 $d
     /tmp/ccy4tSof.s:2005   .bss.trigger_led_count:0000000000000000 $d
     /tmp/ccy4tSof.s:2016   .bss.trigger_led_flag:0000000000000000 $d
     /tmp/ccy4tSof.s:2021   .bss.uart_transmit_flag:0000000000000000 $d
     /tmp/ccy4tSof.s:2023   .data.BASE_DAY:0000000000000000 $d
     /tmp/ccy4tSof.s:2030   .data.BASE_HOUR:0000000000000000 $d
     /tmp/ccy4tSof.s:2037   .data.BASE_MONTH:0000000000000000 $d
     /tmp/ccy4tSof.s:2044   .data.BASE_YEAR:0000000000000000 $d
     /tmp/ccy4tSof.s:2051   .data.LATITUDE:0000000000000000 $d
     /tmp/ccy4tSof.s:2059   .data.LONGITUDE:0000000000000000 $d
     /tmp/ccy4tSof.s:2073   .data.pps_offset:0000000000000000 $d

UNDEFINED SYMBOLS
HAL_GPIO_WritePin
SystemCoreClock
HAL_GetTick
memset
sprintf
strlen
htim2
strtol
HAL_UART_Transmit
strncmp
strtok
atoi
ARM GAS  /tmp/ccy4tSof.s 			page 55


strncpy
strncat
huart1
HAL_UART_Receive_IT
htim4
HAL_RCC_OscConfig
HAL_RCC_ClockConfig
HAL_Init
MX_GPIO_Init
MX_DMA_Init
MX_TIM2_Init
MX_USART1_UART_Init
MX_USART3_UART_Init
MX_TIM3_Init
MX_TIM4_Init
HAL_TIM_Base_Start_IT
HAL_NVIC_SetPriority
HAL_NVIC_EnableIRQ
HAL_GPIO_TogglePin
HAL_UART_Transmit_DMA
htim3
huart3
