ARM GAS  /tmp/ccTaW5Ak.s 			page 1


   1              		.cpu cortex-m3
   2              		.eabi_attribute 20, 1
   3              		.eabi_attribute 21, 1
   4              		.eabi_attribute 23, 3
   5              		.eabi_attribute 24, 1
   6              		.eabi_attribute 25, 1
   7              		.eabi_attribute 26, 1
   8              		.eabi_attribute 30, 1
   9              		.eabi_attribute 34, 1
  10              		.eabi_attribute 18, 4
  11              		.file	"syscalls.c"
  12              		.text
  13              	.Ltext0:
  14              		.cfi_sections	.debug_frame
  15              		.section	.text.initialise_monitor_handles,"ax",%progbits
  16              		.align	1
  17              		.global	initialise_monitor_handles
  18              		.arch armv7-m
  19              		.syntax unified
  20              		.thumb
  21              		.thumb_func
  22              		.fpu softvfp
  24              	initialise_monitor_handles:
  25              	.LFB25:
  26              		.file 1 "Src/syscalls.c"
   1:Src/syscalls.c **** /**
   2:Src/syscalls.c ****  ******************************************************************************
   3:Src/syscalls.c ****  * @file      syscalls.c
   4:Src/syscalls.c ****  * @author    Auto-generated by STM32CubeMX
   5:Src/syscalls.c ****  * @brief     Minimal System calls file
   6:Src/syscalls.c ****  *
   7:Src/syscalls.c ****  *            For more information about which c-functions
   8:Src/syscalls.c ****  *            need which of these lowlevel functions
   9:Src/syscalls.c ****  *            please consult the Newlib libc-manual
  10:Src/syscalls.c ****  ******************************************************************************
  11:Src/syscalls.c ****  * @attention
  12:Src/syscalls.c ****  *
  13:Src/syscalls.c ****  * Copyright (c) 2020-2024 STMicroelectronics.
  14:Src/syscalls.c ****  * All rights reserved.
  15:Src/syscalls.c ****  *
  16:Src/syscalls.c ****  * This software is licensed under terms that can be found in the LICENSE file
  17:Src/syscalls.c ****  * in the root directory of this software component.
  18:Src/syscalls.c ****  * If no LICENSE file comes with this software, it is provided AS-IS.
  19:Src/syscalls.c ****  *
  20:Src/syscalls.c ****  ******************************************************************************
  21:Src/syscalls.c ****  */
  22:Src/syscalls.c **** 
  23:Src/syscalls.c **** /* Includes */
  24:Src/syscalls.c **** #include <sys/stat.h>
  25:Src/syscalls.c **** #include <stdlib.h>
  26:Src/syscalls.c **** #include <errno.h>
  27:Src/syscalls.c **** #include <stdio.h>
  28:Src/syscalls.c **** #include <signal.h>
  29:Src/syscalls.c **** #include <time.h>
  30:Src/syscalls.c **** #include <sys/time.h>
  31:Src/syscalls.c **** #include <sys/times.h>
  32:Src/syscalls.c **** 
ARM GAS  /tmp/ccTaW5Ak.s 			page 2


  33:Src/syscalls.c **** 
  34:Src/syscalls.c **** /* Variables */
  35:Src/syscalls.c **** extern int __io_putchar(int ch) __attribute__((weak));
  36:Src/syscalls.c **** extern int __io_getchar(void) __attribute__((weak));
  37:Src/syscalls.c **** 
  38:Src/syscalls.c **** 
  39:Src/syscalls.c **** char *__env[1] = { 0 };
  40:Src/syscalls.c **** char **environ = __env;
  41:Src/syscalls.c **** 
  42:Src/syscalls.c **** 
  43:Src/syscalls.c **** /* Functions */
  44:Src/syscalls.c **** void initialise_monitor_handles()
  45:Src/syscalls.c **** {
  27              		.loc 1 45 1 view -0
  28              		.cfi_startproc
  29              		@ args = 0, pretend = 0, frame = 0
  30              		@ frame_needed = 0, uses_anonymous_args = 0
  31              		@ link register save eliminated.
  46:Src/syscalls.c **** }
  32              		.loc 1 46 1 view .LVU1
  33 0000 7047     		bx	lr
  34              		.cfi_endproc
  35              	.LFE25:
  37              		.section	.text._getpid,"ax",%progbits
  38              		.align	1
  39              		.global	_getpid
  40              		.syntax unified
  41              		.thumb
  42              		.thumb_func
  43              		.fpu softvfp
  45              	_getpid:
  46              	.LFB26:
  47:Src/syscalls.c **** 
  48:Src/syscalls.c **** int _getpid(void)
  49:Src/syscalls.c **** {
  47              		.loc 1 49 1 view -0
  48              		.cfi_startproc
  49              		@ args = 0, pretend = 0, frame = 0
  50              		@ frame_needed = 0, uses_anonymous_args = 0
  51              		@ link register save eliminated.
  50:Src/syscalls.c ****   return 1;
  52              		.loc 1 50 3 view .LVU3
  51:Src/syscalls.c **** }
  53              		.loc 1 51 1 is_stmt 0 view .LVU4
  54 0000 0120     		movs	r0, #1
  55 0002 7047     		bx	lr
  56              		.cfi_endproc
  57              	.LFE26:
  59              		.section	.text._kill,"ax",%progbits
  60              		.align	1
  61              		.global	_kill
  62              		.syntax unified
  63              		.thumb
  64              		.thumb_func
  65              		.fpu softvfp
  67              	_kill:
  68              	.LVL0:
ARM GAS  /tmp/ccTaW5Ak.s 			page 3


  69              	.LFB27:
  52:Src/syscalls.c **** 
  53:Src/syscalls.c **** int _kill(int pid, int sig)
  54:Src/syscalls.c **** {
  70              		.loc 1 54 1 is_stmt 1 view -0
  71              		.cfi_startproc
  72              		@ args = 0, pretend = 0, frame = 0
  73              		@ frame_needed = 0, uses_anonymous_args = 0
  74              		.loc 1 54 1 is_stmt 0 view .LVU6
  75 0000 08B5     		push	{r3, lr}
  76              	.LCFI0:
  77              		.cfi_def_cfa_offset 8
  78              		.cfi_offset 3, -8
  79              		.cfi_offset 14, -4
  55:Src/syscalls.c ****   (void)pid;
  80              		.loc 1 55 3 is_stmt 1 view .LVU7
  56:Src/syscalls.c ****   (void)sig;
  81              		.loc 1 56 3 view .LVU8
  57:Src/syscalls.c ****   errno = EINVAL;
  82              		.loc 1 57 3 view .LVU9
  83 0002 FFF7FEFF 		bl	__errno
  84              	.LVL1:
  85              		.loc 1 57 9 is_stmt 0 view .LVU10
  86 0006 1623     		movs	r3, #22
  87 0008 0360     		str	r3, [r0]
  58:Src/syscalls.c ****   return -1;
  88              		.loc 1 58 3 is_stmt 1 view .LVU11
  59:Src/syscalls.c **** }
  89              		.loc 1 59 1 is_stmt 0 view .LVU12
  90 000a 4FF0FF30 		mov	r0, #-1
  91 000e 08BD     		pop	{r3, pc}
  92              		.cfi_endproc
  93              	.LFE27:
  95              		.section	.text._exit,"ax",%progbits
  96              		.align	1
  97              		.global	_exit
  98              		.syntax unified
  99              		.thumb
 100              		.thumb_func
 101              		.fpu softvfp
 103              	_exit:
 104              	.LVL2:
 105              	.LFB28:
  60:Src/syscalls.c **** 
  61:Src/syscalls.c **** void _exit (int status)
  62:Src/syscalls.c **** {
 106              		.loc 1 62 1 is_stmt 1 view -0
 107              		.cfi_startproc
 108              		@ Volatile: function does not return.
 109              		@ args = 0, pretend = 0, frame = 0
 110              		@ frame_needed = 0, uses_anonymous_args = 0
 111              		.loc 1 62 1 is_stmt 0 view .LVU14
 112 0000 08B5     		push	{r3, lr}
 113              	.LCFI1:
 114              		.cfi_def_cfa_offset 8
 115              		.cfi_offset 3, -8
 116              		.cfi_offset 14, -4
ARM GAS  /tmp/ccTaW5Ak.s 			page 4


  63:Src/syscalls.c ****   _kill(status, -1);
 117              		.loc 1 63 3 is_stmt 1 view .LVU15
 118 0002 4FF0FF31 		mov	r1, #-1
 119 0006 FFF7FEFF 		bl	_kill
 120              	.LVL3:
 121              	.L6:
  64:Src/syscalls.c ****   while (1) {}    /* Make sure we hang here */
 122              		.loc 1 64 3 discriminator 1 view .LVU16
 123              		.loc 1 64 14 discriminator 1 view .LVU17
 124              		.loc 1 64 9 discriminator 1 view .LVU18
 125 000a FEE7     		b	.L6
 126              		.cfi_endproc
 127              	.LFE28:
 129              		.section	.text._read,"ax",%progbits
 130              		.align	1
 131              		.weak	_read
 132              		.syntax unified
 133              		.thumb
 134              		.thumb_func
 135              		.fpu softvfp
 137              	_read:
 138              	.LVL4:
 139              	.LFB29:
  65:Src/syscalls.c **** }
  66:Src/syscalls.c **** 
  67:Src/syscalls.c **** __attribute__((weak)) int _read(int file, char *ptr, int len)
  68:Src/syscalls.c **** {
 140              		.loc 1 68 1 view -0
 141              		.cfi_startproc
 142              		@ args = 0, pretend = 0, frame = 0
 143              		@ frame_needed = 0, uses_anonymous_args = 0
 144              		.loc 1 68 1 is_stmt 0 view .LVU20
 145 0000 70B5     		push	{r4, r5, r6, lr}
 146              	.LCFI2:
 147              		.cfi_def_cfa_offset 16
 148              		.cfi_offset 4, -16
 149              		.cfi_offset 5, -12
 150              		.cfi_offset 6, -8
 151              		.cfi_offset 14, -4
 152 0002 0C46     		mov	r4, r1
 153 0004 1646     		mov	r6, r2
  69:Src/syscalls.c ****   (void)file;
 154              		.loc 1 69 3 is_stmt 1 view .LVU21
  70:Src/syscalls.c ****   int DataIdx;
 155              		.loc 1 70 3 view .LVU22
  71:Src/syscalls.c **** 
  72:Src/syscalls.c ****   for (DataIdx = 0; DataIdx < len; DataIdx++)
 156              		.loc 1 72 3 view .LVU23
 157              	.LVL5:
 158              		.loc 1 72 16 is_stmt 0 view .LVU24
 159 0006 0025     		movs	r5, #0
 160              	.LVL6:
 161              	.L9:
 162              		.loc 1 72 21 is_stmt 1 discriminator 1 view .LVU25
 163              		.loc 1 72 3 is_stmt 0 discriminator 1 view .LVU26
 164 0008 B542     		cmp	r5, r6
 165 000a 07DA     		bge	.L12
ARM GAS  /tmp/ccTaW5Ak.s 			page 5


  73:Src/syscalls.c ****   {
  74:Src/syscalls.c ****     *ptr++ = __io_getchar();
 166              		.loc 1 74 5 is_stmt 1 discriminator 3 view .LVU27
 167              		.loc 1 74 14 is_stmt 0 discriminator 3 view .LVU28
 168 000c FFF7FEFF 		bl	__io_getchar
 169              	.LVL7:
 170              		.loc 1 74 9 discriminator 3 view .LVU29
 171 0010 2146     		mov	r1, r4
 172              	.LVL8:
 173              		.loc 1 74 12 discriminator 3 view .LVU30
 174 0012 01F8010B 		strb	r0, [r1], #1
 175              	.LVL9:
  72:Src/syscalls.c ****   {
 176              		.loc 1 72 36 is_stmt 1 discriminator 3 view .LVU31
  72:Src/syscalls.c ****   {
 177              		.loc 1 72 43 is_stmt 0 discriminator 3 view .LVU32
 178 0016 0135     		adds	r5, r5, #1
 179              	.LVL10:
 180              		.loc 1 74 9 discriminator 3 view .LVU33
 181 0018 0C46     		mov	r4, r1
 182 001a F5E7     		b	.L9
 183              	.L12:
  75:Src/syscalls.c ****   }
  76:Src/syscalls.c **** 
  77:Src/syscalls.c ****   return len;
 184              		.loc 1 77 3 is_stmt 1 view .LVU34
  78:Src/syscalls.c **** }
 185              		.loc 1 78 1 is_stmt 0 view .LVU35
 186 001c 3046     		mov	r0, r6
 187 001e 70BD     		pop	{r4, r5, r6, pc}
 188              		.loc 1 78 1 view .LVU36
 189              		.cfi_endproc
 190              	.LFE29:
 192              		.section	.text._write,"ax",%progbits
 193              		.align	1
 194              		.weak	_write
 195              		.syntax unified
 196              		.thumb
 197              		.thumb_func
 198              		.fpu softvfp
 200              	_write:
 201              	.LVL11:
 202              	.LFB30:
  79:Src/syscalls.c **** 
  80:Src/syscalls.c **** __attribute__((weak)) int _write(int file, char *ptr, int len)
  81:Src/syscalls.c **** {
 203              		.loc 1 81 1 is_stmt 1 view -0
 204              		.cfi_startproc
 205              		@ args = 0, pretend = 0, frame = 0
 206              		@ frame_needed = 0, uses_anonymous_args = 0
 207              		.loc 1 81 1 is_stmt 0 view .LVU38
 208 0000 70B5     		push	{r4, r5, r6, lr}
 209              	.LCFI3:
 210              		.cfi_def_cfa_offset 16
 211              		.cfi_offset 4, -16
 212              		.cfi_offset 5, -12
 213              		.cfi_offset 6, -8
ARM GAS  /tmp/ccTaW5Ak.s 			page 6


 214              		.cfi_offset 14, -4
 215 0002 0C46     		mov	r4, r1
 216 0004 1646     		mov	r6, r2
  82:Src/syscalls.c ****   (void)file;
 217              		.loc 1 82 3 is_stmt 1 view .LVU39
  83:Src/syscalls.c ****   int DataIdx;
 218              		.loc 1 83 3 view .LVU40
  84:Src/syscalls.c **** 
  85:Src/syscalls.c ****   for (DataIdx = 0; DataIdx < len; DataIdx++)
 219              		.loc 1 85 3 view .LVU41
 220              	.LVL12:
 221              		.loc 1 85 16 is_stmt 0 view .LVU42
 222 0006 0025     		movs	r5, #0
 223              	.LVL13:
 224              	.L14:
 225              		.loc 1 85 21 is_stmt 1 discriminator 1 view .LVU43
 226              		.loc 1 85 3 is_stmt 0 discriminator 1 view .LVU44
 227 0008 B542     		cmp	r5, r6
 228 000a 05DA     		bge	.L17
  86:Src/syscalls.c ****   {
  87:Src/syscalls.c ****     __io_putchar(*ptr++);
 229              		.loc 1 87 5 is_stmt 1 discriminator 3 view .LVU45
 230              	.LVL14:
 231              		.loc 1 87 5 is_stmt 0 discriminator 3 view .LVU46
 232 000c 14F8010B 		ldrb	r0, [r4], #1	@ zero_extendqisi2
 233              	.LVL15:
 234              		.loc 1 87 5 discriminator 3 view .LVU47
 235 0010 FFF7FEFF 		bl	__io_putchar
 236              	.LVL16:
  85:Src/syscalls.c ****   {
 237              		.loc 1 85 36 is_stmt 1 discriminator 3 view .LVU48
  85:Src/syscalls.c ****   {
 238              		.loc 1 85 43 is_stmt 0 discriminator 3 view .LVU49
 239 0014 0135     		adds	r5, r5, #1
 240              	.LVL17:
  85:Src/syscalls.c ****   {
 241              		.loc 1 85 43 discriminator 3 view .LVU50
 242 0016 F7E7     		b	.L14
 243              	.L17:
  88:Src/syscalls.c ****   }
  89:Src/syscalls.c ****   return len;
 244              		.loc 1 89 3 is_stmt 1 view .LVU51
  90:Src/syscalls.c **** }
 245              		.loc 1 90 1 is_stmt 0 view .LVU52
 246 0018 3046     		mov	r0, r6
 247 001a 70BD     		pop	{r4, r5, r6, pc}
 248              		.loc 1 90 1 view .LVU53
 249              		.cfi_endproc
 250              	.LFE30:
 252              		.section	.text._close,"ax",%progbits
 253              		.align	1
 254              		.global	_close
 255              		.syntax unified
 256              		.thumb
 257              		.thumb_func
 258              		.fpu softvfp
 260              	_close:
ARM GAS  /tmp/ccTaW5Ak.s 			page 7


 261              	.LVL18:
 262              	.LFB31:
  91:Src/syscalls.c **** 
  92:Src/syscalls.c **** int _close(int file)
  93:Src/syscalls.c **** {
 263              		.loc 1 93 1 is_stmt 1 view -0
 264              		.cfi_startproc
 265              		@ args = 0, pretend = 0, frame = 0
 266              		@ frame_needed = 0, uses_anonymous_args = 0
 267              		@ link register save eliminated.
  94:Src/syscalls.c ****   (void)file;
 268              		.loc 1 94 3 view .LVU55
  95:Src/syscalls.c ****   return -1;
 269              		.loc 1 95 3 view .LVU56
  96:Src/syscalls.c **** }
 270              		.loc 1 96 1 is_stmt 0 view .LVU57
 271 0000 4FF0FF30 		mov	r0, #-1
 272              	.LVL19:
 273              		.loc 1 96 1 view .LVU58
 274 0004 7047     		bx	lr
 275              		.cfi_endproc
 276              	.LFE31:
 278              		.section	.text._fstat,"ax",%progbits
 279              		.align	1
 280              		.global	_fstat
 281              		.syntax unified
 282              		.thumb
 283              		.thumb_func
 284              		.fpu softvfp
 286              	_fstat:
 287              	.LVL20:
 288              	.LFB32:
  97:Src/syscalls.c **** 
  98:Src/syscalls.c **** 
  99:Src/syscalls.c **** int _fstat(int file, struct stat *st)
 100:Src/syscalls.c **** {
 289              		.loc 1 100 1 is_stmt 1 view -0
 290              		.cfi_startproc
 291              		@ args = 0, pretend = 0, frame = 0
 292              		@ frame_needed = 0, uses_anonymous_args = 0
 293              		@ link register save eliminated.
 101:Src/syscalls.c ****   (void)file;
 294              		.loc 1 101 3 view .LVU60
 102:Src/syscalls.c ****   st->st_mode = S_IFCHR;
 295              		.loc 1 102 3 view .LVU61
 296              		.loc 1 102 15 is_stmt 0 view .LVU62
 297 0000 4FF40053 		mov	r3, #8192
 298 0004 4B60     		str	r3, [r1, #4]
 103:Src/syscalls.c ****   return 0;
 299              		.loc 1 103 3 is_stmt 1 view .LVU63
 104:Src/syscalls.c **** }
 300              		.loc 1 104 1 is_stmt 0 view .LVU64
 301 0006 0020     		movs	r0, #0
 302              	.LVL21:
 303              		.loc 1 104 1 view .LVU65
 304 0008 7047     		bx	lr
 305              		.cfi_endproc
ARM GAS  /tmp/ccTaW5Ak.s 			page 8


 306              	.LFE32:
 308              		.section	.text._isatty,"ax",%progbits
 309              		.align	1
 310              		.global	_isatty
 311              		.syntax unified
 312              		.thumb
 313              		.thumb_func
 314              		.fpu softvfp
 316              	_isatty:
 317              	.LVL22:
 318              	.LFB33:
 105:Src/syscalls.c **** 
 106:Src/syscalls.c **** int _isatty(int file)
 107:Src/syscalls.c **** {
 319              		.loc 1 107 1 is_stmt 1 view -0
 320              		.cfi_startproc
 321              		@ args = 0, pretend = 0, frame = 0
 322              		@ frame_needed = 0, uses_anonymous_args = 0
 323              		@ link register save eliminated.
 108:Src/syscalls.c ****   (void)file;
 324              		.loc 1 108 3 view .LVU67
 109:Src/syscalls.c ****   return 1;
 325              		.loc 1 109 3 view .LVU68
 110:Src/syscalls.c **** }
 326              		.loc 1 110 1 is_stmt 0 view .LVU69
 327 0000 0120     		movs	r0, #1
 328              	.LVL23:
 329              		.loc 1 110 1 view .LVU70
 330 0002 7047     		bx	lr
 331              		.cfi_endproc
 332              	.LFE33:
 334              		.section	.text._lseek,"ax",%progbits
 335              		.align	1
 336              		.global	_lseek
 337              		.syntax unified
 338              		.thumb
 339              		.thumb_func
 340              		.fpu softvfp
 342              	_lseek:
 343              	.LVL24:
 344              	.LFB34:
 111:Src/syscalls.c **** 
 112:Src/syscalls.c **** int _lseek(int file, int ptr, int dir)
 113:Src/syscalls.c **** {
 345              		.loc 1 113 1 is_stmt 1 view -0
 346              		.cfi_startproc
 347              		@ args = 0, pretend = 0, frame = 0
 348              		@ frame_needed = 0, uses_anonymous_args = 0
 349              		@ link register save eliminated.
 114:Src/syscalls.c ****   (void)file;
 350              		.loc 1 114 3 view .LVU72
 115:Src/syscalls.c ****   (void)ptr;
 351              		.loc 1 115 3 view .LVU73
 116:Src/syscalls.c ****   (void)dir;
 352              		.loc 1 116 3 view .LVU74
 117:Src/syscalls.c ****   return 0;
 353              		.loc 1 117 3 view .LVU75
ARM GAS  /tmp/ccTaW5Ak.s 			page 9


 118:Src/syscalls.c **** }
 354              		.loc 1 118 1 is_stmt 0 view .LVU76
 355 0000 0020     		movs	r0, #0
 356              	.LVL25:
 357              		.loc 1 118 1 view .LVU77
 358 0002 7047     		bx	lr
 359              		.cfi_endproc
 360              	.LFE34:
 362              		.section	.text._open,"ax",%progbits
 363              		.align	1
 364              		.global	_open
 365              		.syntax unified
 366              		.thumb
 367              		.thumb_func
 368              		.fpu softvfp
 370              	_open:
 371              	.LVL26:
 372              	.LFB35:
 119:Src/syscalls.c **** 
 120:Src/syscalls.c **** int _open(char *path, int flags, ...)
 121:Src/syscalls.c **** {
 373              		.loc 1 121 1 is_stmt 1 view -0
 374              		.cfi_startproc
 375              		@ args = 4, pretend = 12, frame = 0
 376              		@ frame_needed = 0, uses_anonymous_args = 1
 377              		@ link register save eliminated.
 378              		.loc 1 121 1 is_stmt 0 view .LVU79
 379 0000 0EB4     		push	{r1, r2, r3}
 380              	.LCFI4:
 381              		.cfi_def_cfa_offset 12
 382              		.cfi_offset 1, -12
 383              		.cfi_offset 2, -8
 384              		.cfi_offset 3, -4
 122:Src/syscalls.c ****   (void)path;
 385              		.loc 1 122 3 is_stmt 1 view .LVU80
 123:Src/syscalls.c ****   (void)flags;
 386              		.loc 1 123 3 view .LVU81
 124:Src/syscalls.c ****   /* Pretend like we always fail */
 125:Src/syscalls.c ****   return -1;
 387              		.loc 1 125 3 view .LVU82
 126:Src/syscalls.c **** }
 388              		.loc 1 126 1 is_stmt 0 view .LVU83
 389 0002 4FF0FF30 		mov	r0, #-1
 390              	.LVL27:
 391              		.loc 1 126 1 view .LVU84
 392 0006 03B0     		add	sp, sp, #12
 393              	.LCFI5:
 394              		.cfi_restore 3
 395              		.cfi_restore 2
 396              		.cfi_restore 1
 397              		.cfi_def_cfa_offset 0
 398 0008 7047     		bx	lr
 399              		.cfi_endproc
 400              	.LFE35:
 402              		.section	.text._wait,"ax",%progbits
 403              		.align	1
 404              		.global	_wait
ARM GAS  /tmp/ccTaW5Ak.s 			page 10


 405              		.syntax unified
 406              		.thumb
 407              		.thumb_func
 408              		.fpu softvfp
 410              	_wait:
 411              	.LVL28:
 412              	.LFB36:
 127:Src/syscalls.c **** 
 128:Src/syscalls.c **** int _wait(int *status)
 129:Src/syscalls.c **** {
 413              		.loc 1 129 1 is_stmt 1 view -0
 414              		.cfi_startproc
 415              		@ args = 0, pretend = 0, frame = 0
 416              		@ frame_needed = 0, uses_anonymous_args = 0
 417              		.loc 1 129 1 is_stmt 0 view .LVU86
 418 0000 08B5     		push	{r3, lr}
 419              	.LCFI6:
 420              		.cfi_def_cfa_offset 8
 421              		.cfi_offset 3, -8
 422              		.cfi_offset 14, -4
 130:Src/syscalls.c ****   (void)status;
 423              		.loc 1 130 3 is_stmt 1 view .LVU87
 131:Src/syscalls.c ****   errno = ECHILD;
 424              		.loc 1 131 3 view .LVU88
 425 0002 FFF7FEFF 		bl	__errno
 426              	.LVL29:
 427              		.loc 1 131 9 is_stmt 0 view .LVU89
 428 0006 0A23     		movs	r3, #10
 429 0008 0360     		str	r3, [r0]
 132:Src/syscalls.c ****   return -1;
 430              		.loc 1 132 3 is_stmt 1 view .LVU90
 133:Src/syscalls.c **** }
 431              		.loc 1 133 1 is_stmt 0 view .LVU91
 432 000a 4FF0FF30 		mov	r0, #-1
 433 000e 08BD     		pop	{r3, pc}
 434              		.cfi_endproc
 435              	.LFE36:
 437              		.section	.text._unlink,"ax",%progbits
 438              		.align	1
 439              		.global	_unlink
 440              		.syntax unified
 441              		.thumb
 442              		.thumb_func
 443              		.fpu softvfp
 445              	_unlink:
 446              	.LVL30:
 447              	.LFB37:
 134:Src/syscalls.c **** 
 135:Src/syscalls.c **** int _unlink(char *name)
 136:Src/syscalls.c **** {
 448              		.loc 1 136 1 is_stmt 1 view -0
 449              		.cfi_startproc
 450              		@ args = 0, pretend = 0, frame = 0
 451              		@ frame_needed = 0, uses_anonymous_args = 0
 452              		.loc 1 136 1 is_stmt 0 view .LVU93
 453 0000 08B5     		push	{r3, lr}
 454              	.LCFI7:
ARM GAS  /tmp/ccTaW5Ak.s 			page 11


 455              		.cfi_def_cfa_offset 8
 456              		.cfi_offset 3, -8
 457              		.cfi_offset 14, -4
 137:Src/syscalls.c ****   (void)name;
 458              		.loc 1 137 3 is_stmt 1 view .LVU94
 138:Src/syscalls.c ****   errno = ENOENT;
 459              		.loc 1 138 3 view .LVU95
 460 0002 FFF7FEFF 		bl	__errno
 461              	.LVL31:
 462              		.loc 1 138 9 is_stmt 0 view .LVU96
 463 0006 0223     		movs	r3, #2
 464 0008 0360     		str	r3, [r0]
 139:Src/syscalls.c ****   return -1;
 465              		.loc 1 139 3 is_stmt 1 view .LVU97
 140:Src/syscalls.c **** }
 466              		.loc 1 140 1 is_stmt 0 view .LVU98
 467 000a 4FF0FF30 		mov	r0, #-1
 468 000e 08BD     		pop	{r3, pc}
 469              		.cfi_endproc
 470              	.LFE37:
 472              		.section	.text._times,"ax",%progbits
 473              		.align	1
 474              		.global	_times
 475              		.syntax unified
 476              		.thumb
 477              		.thumb_func
 478              		.fpu softvfp
 480              	_times:
 481              	.LVL32:
 482              	.LFB38:
 141:Src/syscalls.c **** 
 142:Src/syscalls.c **** int _times(struct tms *buf)
 143:Src/syscalls.c **** {
 483              		.loc 1 143 1 is_stmt 1 view -0
 484              		.cfi_startproc
 485              		@ args = 0, pretend = 0, frame = 0
 486              		@ frame_needed = 0, uses_anonymous_args = 0
 487              		@ link register save eliminated.
 144:Src/syscalls.c ****   (void)buf;
 488              		.loc 1 144 3 view .LVU100
 145:Src/syscalls.c ****   return -1;
 489              		.loc 1 145 3 view .LVU101
 146:Src/syscalls.c **** }
 490              		.loc 1 146 1 is_stmt 0 view .LVU102
 491 0000 4FF0FF30 		mov	r0, #-1
 492              	.LVL33:
 493              		.loc 1 146 1 view .LVU103
 494 0004 7047     		bx	lr
 495              		.cfi_endproc
 496              	.LFE38:
 498              		.section	.text._stat,"ax",%progbits
 499              		.align	1
 500              		.global	_stat
 501              		.syntax unified
 502              		.thumb
 503              		.thumb_func
 504              		.fpu softvfp
ARM GAS  /tmp/ccTaW5Ak.s 			page 12


 506              	_stat:
 507              	.LVL34:
 508              	.LFB39:
 147:Src/syscalls.c **** 
 148:Src/syscalls.c **** int _stat(char *file, struct stat *st)
 149:Src/syscalls.c **** {
 509              		.loc 1 149 1 is_stmt 1 view -0
 510              		.cfi_startproc
 511              		@ args = 0, pretend = 0, frame = 0
 512              		@ frame_needed = 0, uses_anonymous_args = 0
 513              		@ link register save eliminated.
 150:Src/syscalls.c ****   (void)file;
 514              		.loc 1 150 3 view .LVU105
 151:Src/syscalls.c ****   st->st_mode = S_IFCHR;
 515              		.loc 1 151 3 view .LVU106
 516              		.loc 1 151 15 is_stmt 0 view .LVU107
 517 0000 4FF40053 		mov	r3, #8192
 518 0004 4B60     		str	r3, [r1, #4]
 152:Src/syscalls.c ****   return 0;
 519              		.loc 1 152 3 is_stmt 1 view .LVU108
 153:Src/syscalls.c **** }
 520              		.loc 1 153 1 is_stmt 0 view .LVU109
 521 0006 0020     		movs	r0, #0
 522              	.LVL35:
 523              		.loc 1 153 1 view .LVU110
 524 0008 7047     		bx	lr
 525              		.cfi_endproc
 526              	.LFE39:
 528              		.section	.text._link,"ax",%progbits
 529              		.align	1
 530              		.global	_link
 531              		.syntax unified
 532              		.thumb
 533              		.thumb_func
 534              		.fpu softvfp
 536              	_link:
 537              	.LVL36:
 538              	.LFB40:
 154:Src/syscalls.c **** 
 155:Src/syscalls.c **** int _link(char *old, char *new)
 156:Src/syscalls.c **** {
 539              		.loc 1 156 1 is_stmt 1 view -0
 540              		.cfi_startproc
 541              		@ args = 0, pretend = 0, frame = 0
 542              		@ frame_needed = 0, uses_anonymous_args = 0
 543              		.loc 1 156 1 is_stmt 0 view .LVU112
 544 0000 08B5     		push	{r3, lr}
 545              	.LCFI8:
 546              		.cfi_def_cfa_offset 8
 547              		.cfi_offset 3, -8
 548              		.cfi_offset 14, -4
 157:Src/syscalls.c ****   (void)old;
 549              		.loc 1 157 3 is_stmt 1 view .LVU113
 158:Src/syscalls.c ****   (void)new;
 550              		.loc 1 158 3 view .LVU114
 159:Src/syscalls.c ****   errno = EMLINK;
 551              		.loc 1 159 3 view .LVU115
ARM GAS  /tmp/ccTaW5Ak.s 			page 13


 552 0002 FFF7FEFF 		bl	__errno
 553              	.LVL37:
 554              		.loc 1 159 9 is_stmt 0 view .LVU116
 555 0006 1F23     		movs	r3, #31
 556 0008 0360     		str	r3, [r0]
 160:Src/syscalls.c ****   return -1;
 557              		.loc 1 160 3 is_stmt 1 view .LVU117
 161:Src/syscalls.c **** }
 558              		.loc 1 161 1 is_stmt 0 view .LVU118
 559 000a 4FF0FF30 		mov	r0, #-1
 560 000e 08BD     		pop	{r3, pc}
 561              		.cfi_endproc
 562              	.LFE40:
 564              		.section	.text._fork,"ax",%progbits
 565              		.align	1
 566              		.global	_fork
 567              		.syntax unified
 568              		.thumb
 569              		.thumb_func
 570              		.fpu softvfp
 572              	_fork:
 573              	.LFB41:
 162:Src/syscalls.c **** 
 163:Src/syscalls.c **** int _fork(void)
 164:Src/syscalls.c **** {
 574              		.loc 1 164 1 is_stmt 1 view -0
 575              		.cfi_startproc
 576              		@ args = 0, pretend = 0, frame = 0
 577              		@ frame_needed = 0, uses_anonymous_args = 0
 578 0000 08B5     		push	{r3, lr}
 579              	.LCFI9:
 580              		.cfi_def_cfa_offset 8
 581              		.cfi_offset 3, -8
 582              		.cfi_offset 14, -4
 165:Src/syscalls.c ****   errno = EAGAIN;
 583              		.loc 1 165 3 view .LVU120
 584 0002 FFF7FEFF 		bl	__errno
 585              	.LVL38:
 586              		.loc 1 165 9 is_stmt 0 view .LVU121
 587 0006 0B23     		movs	r3, #11
 588 0008 0360     		str	r3, [r0]
 166:Src/syscalls.c ****   return -1;
 589              		.loc 1 166 3 is_stmt 1 view .LVU122
 167:Src/syscalls.c **** }
 590              		.loc 1 167 1 is_stmt 0 view .LVU123
 591 000a 4FF0FF30 		mov	r0, #-1
 592 000e 08BD     		pop	{r3, pc}
 593              		.cfi_endproc
 594              	.LFE41:
 596              		.section	.text._execve,"ax",%progbits
 597              		.align	1
 598              		.global	_execve
 599              		.syntax unified
 600              		.thumb
 601              		.thumb_func
 602              		.fpu softvfp
 604              	_execve:
ARM GAS  /tmp/ccTaW5Ak.s 			page 14


 605              	.LVL39:
 606              	.LFB42:
 168:Src/syscalls.c **** 
 169:Src/syscalls.c **** int _execve(char *name, char **argv, char **env)
 170:Src/syscalls.c **** {
 607              		.loc 1 170 1 is_stmt 1 view -0
 608              		.cfi_startproc
 609              		@ args = 0, pretend = 0, frame = 0
 610              		@ frame_needed = 0, uses_anonymous_args = 0
 611              		.loc 1 170 1 is_stmt 0 view .LVU125
 612 0000 08B5     		push	{r3, lr}
 613              	.LCFI10:
 614              		.cfi_def_cfa_offset 8
 615              		.cfi_offset 3, -8
 616              		.cfi_offset 14, -4
 171:Src/syscalls.c ****   (void)name;
 617              		.loc 1 171 3 is_stmt 1 view .LVU126
 172:Src/syscalls.c ****   (void)argv;
 618              		.loc 1 172 3 view .LVU127
 173:Src/syscalls.c ****   (void)env;
 619              		.loc 1 173 3 view .LVU128
 174:Src/syscalls.c ****   errno = ENOMEM;
 620              		.loc 1 174 3 view .LVU129
 621 0002 FFF7FEFF 		bl	__errno
 622              	.LVL40:
 623              		.loc 1 174 9 is_stmt 0 view .LVU130
 624 0006 0C23     		movs	r3, #12
 625 0008 0360     		str	r3, [r0]
 175:Src/syscalls.c ****   return -1;
 626              		.loc 1 175 3 is_stmt 1 view .LVU131
 176:Src/syscalls.c **** }
 627              		.loc 1 176 1 is_stmt 0 view .LVU132
 628 000a 4FF0FF30 		mov	r0, #-1
 629 000e 08BD     		pop	{r3, pc}
 630              		.cfi_endproc
 631              	.LFE42:
 633              		.global	environ
 634              		.global	__env
 635              		.section	.bss.__env,"aw",%nobits
 636              		.align	2
 639              	__env:
 640 0000 00000000 		.space	4
 641              		.section	.data.environ,"aw"
 642              		.align	2
 645              	environ:
 646 0000 00000000 		.word	__env
 647              		.weak	__io_putchar
 648              		.weak	__io_getchar
 649              		.text
 650              	.Letext0:
 651              		.file 2 "/usr/include/newlib/machine/_default_types.h"
 652              		.file 3 "/usr/lib/gcc/arm-none-eabi/9.2.1/include/stddef.h"
 653              		.file 4 "/usr/include/newlib/sys/_types.h"
 654              		.file 5 "/usr/include/newlib/sys/reent.h"
 655              		.file 6 "/usr/include/newlib/sys/lock.h"
 656              		.file 7 "/usr/include/newlib/sys/_timeval.h"
 657              		.file 8 "/usr/include/newlib/sys/_timespec.h"
ARM GAS  /tmp/ccTaW5Ak.s 			page 15


 658              		.file 9 "/usr/include/newlib/sys/types.h"
 659              		.file 10 "/usr/include/newlib/time.h"
 660              		.file 11 "/usr/include/newlib/sys/stat.h"
 661              		.file 12 "/usr/include/newlib/stdlib.h"
 662              		.file 13 "/usr/include/newlib/sys/errno.h"
 663              		.file 14 "/usr/include/newlib/sys/times.h"
ARM GAS  /tmp/ccTaW5Ak.s 			page 16

